ARM GAS  C:\Users\ANDREW~1\AppData\Local\Temp\ccEnuc4u.s 			page 1


   1              		.syntax unified
   2              		.cpu cortex-m3
   3              		.fpu softvfp
   4              		.eabi_attribute 20, 1
   5              		.eabi_attribute 21, 1
   6              		.eabi_attribute 23, 3
   7              		.eabi_attribute 24, 1
   8              		.eabi_attribute 25, 1
   9              		.eabi_attribute 26, 1
  10              		.eabi_attribute 30, 1
  11              		.eabi_attribute 34, 1
  12              		.eabi_attribute 18, 4
  13              		.thumb
  14              		.syntax unified
  15              		.file	"main.c"
  16              		.text
  17              	.Ltext0:
  18              		.cfi_sections	.debug_frame
  19              		.section	.text.main,"ax",%progbits
  20              		.align	2
  21              		.global	main
  22              		.thumb
  23              		.thumb_func
  24              		.type	main, %function
  25              	main:
  26              	.LFB64:
  27              		.file 1 "main.c"
   1:main.c        **** /* ========================================
   2:main.c        ****  *
   3:main.c        ****  * Copyright YOUR COMPANY, THE YEAR
   4:main.c        ****  * All Rights Reserved
   5:main.c        ****  * UNPUBLISHED, LICENSED SOFTWARE.
   6:main.c        ****  *
   7:main.c        ****  * CONFIDENTIAL AND PROPRIETARY INFORMATION
   8:main.c        ****  * WHICH IS THE PROPERTY OF your company.
   9:main.c        ****  *
  10:main.c        ****  * ========================================
  11:main.c        **** */
  12:main.c        **** #include "project.h"
  13:main.c        **** void print_uart(int num);
  14:main.c        **** 
  15:main.c        **** CY_ISR(ReadTimer);
  16:main.c        **** 
  17:main.c        **** // Interrupt routine for displaying each sections
  18:main.c        **** int time =0;
  19:main.c        **** CY_ISR(ReadTimer) 
  20:main.c        **** {
  21:main.c        ****     time = (int)(Timer_1_ReadPeriod()-Timer_1_ReadCounter());
  22:main.c        ****     
  23:main.c        ****     print_uart(time);
  24:main.c        ****     CyDelay(5);
  25:main.c        ****     UART_1_PutString("\n");
  26:main.c        ****     CyDelay(5);
  27:main.c        ****     Timer_1_Start();
  28:main.c        ****     
  29:main.c        ****     Control_Reg_1_Write(1); // Reset counter to do more pulses
  30:main.c        ****     CyDelay(5);
ARM GAS  C:\Users\ANDREW~1\AppData\Local\Temp\ccEnuc4u.s 			page 2


  31:main.c        ****     Control_Reg_1_Write(0); // Reset counter to do more pulses
  32:main.c        **** }
  33:main.c        **** 
  34:main.c        **** int main(void)
  35:main.c        **** {
  28              		.loc 1 35 0
  29              		.cfi_startproc
  30              		@ Volatile: function does not return.
  31              		@ args = 0, pretend = 0, frame = 0
  32              		@ frame_needed = 0, uses_anonymous_args = 0
  33 0000 08B5     		push	{r3, lr}
  34              		.cfi_def_cfa_offset 8
  35              		.cfi_offset 3, -8
  36              		.cfi_offset 14, -4
  36:main.c        ****     CyGlobalIntEnable; /* Enable global interrupts. */
  37              		.loc 1 36 0
  38              		.syntax unified
  39              	@ 36 "main.c" 1
  40 0002 62B6     		CPSIE   i
  41              	@ 0 "" 2
  37:main.c        ****     PWM_1_Start();
  42              		.loc 1 37 0
  43              		.thumb
  44              		.syntax unified
  45 0004 FFF7FEFF 		bl	PWM_1_Start
  46              	.LVL0:
  38:main.c        ****     
  39:main.c        ****     Control_Reg_1_Write(0); // Reset counter to do more pulses
  47              		.loc 1 39 0
  48 0008 0020     		movs	r0, #0
  49 000a FFF7FEFF 		bl	Control_Reg_1_Write
  50              	.LVL1:
  40:main.c        ****     /* Place your initialization/startup code here (e.g. MyInst_Start()) */
  41:main.c        **** 
  42:main.c        ****     // Setup Colour sensor
  43:main.c        ****     colour_S0_Write(1);
  51              		.loc 1 43 0
  52 000e 0120     		movs	r0, #1
  53 0010 FFF7FEFF 		bl	colour_S0_Write
  54              	.LVL2:
  44:main.c        ****     colour_S1_Write(1);
  55              		.loc 1 44 0
  56 0014 0120     		movs	r0, #1
  57 0016 FFF7FEFF 		bl	colour_S1_Write
  58              	.LVL3:
  45:main.c        ****     
  46:main.c        ****     colour_S2_Write(1);
  59              		.loc 1 46 0
  60 001a 0120     		movs	r0, #1
  61 001c FFF7FEFF 		bl	colour_S2_Write
  62              	.LVL4:
  47:main.c        ****     colour_S3_Write(1);
  63              		.loc 1 47 0
  64 0020 0120     		movs	r0, #1
  65 0022 FFF7FEFF 		bl	colour_S3_Write
  66              	.LVL5:
  48:main.c        ****     
ARM GAS  C:\Users\ANDREW~1\AppData\Local\Temp\ccEnuc4u.s 			page 3


  49:main.c        ****     
  50:main.c        ****     Timer_1_SetInterruptMode(3);
  67              		.loc 1 50 0
  68 0026 0320     		movs	r0, #3
  69 0028 FFF7FEFF 		bl	Timer_1_SetInterruptMode
  70              	.LVL6:
  51:main.c        ****     Timer_1_Start();
  71              		.loc 1 51 0
  72 002c FFF7FEFF 		bl	Timer_1_Start
  73              	.LVL7:
  52:main.c        ****     
  53:main.c        ****     // Setup UART
  54:main.c        ****     UART_1_Start();
  74              		.loc 1 54 0
  75 0030 FFF7FEFF 		bl	UART_1_Start
  76              	.LVL8:
  55:main.c        ****     UART_1_PutString("Start UART");
  77              		.loc 1 55 0
  78 0034 0848     		ldr	r0, .L4
  79 0036 FFF7FEFF 		bl	UART_1_PutString
  80              	.LVL9:
  56:main.c        ****     CyDelay(5);
  81              		.loc 1 56 0
  82 003a 0520     		movs	r0, #5
  83 003c FFF7FEFF 		bl	CyDelay
  84              	.LVL10:
  57:main.c        ****     UART_1_WriteTxData(0x20);   
  85              		.loc 1 57 0
  86 0040 2020     		movs	r0, #32
  87 0042 FFF7FEFF 		bl	UART_1_WriteTxData
  88              	.LVL11:
  58:main.c        ****     CyDelay(5);
  89              		.loc 1 58 0
  90 0046 0520     		movs	r0, #5
  91 0048 FFF7FEFF 		bl	CyDelay
  92              	.LVL12:
  59:main.c        ****     
  60:main.c        ****     isr_1_ClearPending(); 
  93              		.loc 1 60 0
  94 004c FFF7FEFF 		bl	isr_1_ClearPending
  95              	.LVL13:
  61:main.c        ****     isr_1_StartEx(ReadTimer);  
  96              		.loc 1 61 0
  97 0050 0248     		ldr	r0, .L4+4
  98 0052 FFF7FEFF 		bl	isr_1_StartEx
  99              	.LVL14:
 100              	.L2:
 101 0056 FEE7     		b	.L2
 102              	.L5:
 103              		.align	2
 104              	.L4:
 105 0058 00000000 		.word	.LC0
 106 005c 00000000 		.word	ReadTimer
 107              		.cfi_endproc
 108              	.LFE64:
 109              		.size	main, .-main
 110              		.section	.text.print_uart,"ax",%progbits
ARM GAS  C:\Users\ANDREW~1\AppData\Local\Temp\ccEnuc4u.s 			page 4


 111              		.align	2
 112              		.global	print_uart
 113              		.thumb
 114              		.thumb_func
 115              		.type	print_uart, %function
 116              	print_uart:
 117              	.LFB65:
  62:main.c        ****     
  63:main.c        ****     
  64:main.c        ****     for(;;)
  65:main.c        ****     {
  66:main.c        ****         /*for(int i=0;i<=255;i++)
  67:main.c        ****         {
  68:main.c        ****         PWM_1_WriteCompare(i);
  69:main.c        ****         CyDelay(100);
  70:main.c        ****         
  71:main.c        ****         }*/
  72:main.c        ****         //print_uart(15);
  73:main.c        ****        // time = Timer_1_ReadCounter();
  74:main.c        ****        // print_uart(time);
  75:main.c        ****     //CyDelay(5);
  76:main.c        ****     //UART_1_WriteTxData(0x20);  
  77:main.c        ****     //UART_1_PutString("\n");
  78:main.c        ****     //CyDelay(5);
  79:main.c        ****         /* Place your application code here. */
  80:main.c        ****         //LED_Write(0);
  81:main.c        ****         //CyDelay(500);
  82:main.c        ****         //LED_Write(1);
  83:main.c        ****        // CyDelay(500);
  84:main.c        ****     }
  85:main.c        **** }
  86:main.c        **** 
  87:main.c        **** 
  88:main.c        **** uint8 value_text[16];
  89:main.c        **** void print_uart(int num)
  90:main.c        **** { 
 118              		.loc 1 90 0
 119              		.cfi_startproc
 120              		@ args = 0, pretend = 0, frame = 0
 121              		@ frame_needed = 0, uses_anonymous_args = 0
 122              	.LVL15:
 123 0000 38B5     		push	{r3, r4, r5, lr}
 124              		.cfi_def_cfa_offset 16
 125              		.cfi_offset 3, -16
 126              		.cfi_offset 4, -12
 127              		.cfi_offset 5, -8
 128              		.cfi_offset 14, -4
 129              	.LVL16:
  91:main.c        ****     int num_digits = 0;
  92:main.c        ****     int temp = num;
 130              		.loc 1 92 0
 131 0002 0346     		mov	r3, r0
  91:main.c        ****     int num_digits = 0;
 132              		.loc 1 91 0
 133 0004 0025     		movs	r5, #0
  93:main.c        ****     
  94:main.c        ****     // Count the number of digits (optional for pre-allocation)
ARM GAS  C:\Users\ANDREW~1\AppData\Local\Temp\ccEnuc4u.s 			page 5


  95:main.c        ****     while (temp != 0) {
 134              		.loc 1 95 0
 135 0006 06E0     		b	.L7
 136              	.LVL17:
 137              	.L8:
  96:main.c        ****         temp /= 10;
 138              		.loc 1 96 0
 139 0008 154A     		ldr	r2, .L14
 140 000a 82FB0312 		smull	r1, r2, r2, r3
 141 000e DB17     		asrs	r3, r3, #31
 142              	.LVL18:
 143 0010 C3EBA203 		rsb	r3, r3, r2, asr #2
 144              	.LVL19:
  97:main.c        ****         num_digits++;
 145              		.loc 1 97 0
 146 0014 0135     		adds	r5, r5, #1
 147              	.LVL20:
 148              	.L7:
  95:main.c        ****         temp /= 10;
 149              		.loc 1 95 0
 150 0016 002B     		cmp	r3, #0
 151 0018 F6D1     		bne	.L8
 152              	.LBB2:
  98:main.c        ****     }
  99:main.c        **** 
 100:main.c        ****     for (int i = num_digits-1; i >= 0; --i) {
 153              		.loc 1 100 0
 154 001a 6A1E     		subs	r2, r5, #1
 155              	.LVL21:
 156 001c 0EE0     		b	.L9
 157              	.LVL22:
 158              	.L10:
 101:main.c        ****         value_text[i] = num % 10;
 159              		.loc 1 101 0 discriminator 3
 160 001e 104B     		ldr	r3, .L14
 161 0020 83FB0031 		smull	r3, r1, r3, r0
 162 0024 C317     		asrs	r3, r0, #31
 163 0026 C3EBA103 		rsb	r3, r3, r1, asr #2
 164 002a 1C46     		mov	r4, r3
 165 002c 03EB8303 		add	r3, r3, r3, lsl #2
 166 0030 5900     		lsls	r1, r3, #1
 167 0032 431A     		subs	r3, r0, r1
 168 0034 0B49     		ldr	r1, .L14+4
 169 0036 8B54     		strb	r3, [r1, r2]
 102:main.c        ****         num /= 10;
 170              		.loc 1 102 0 discriminator 3
 171 0038 2046     		mov	r0, r4
 172              	.LVL23:
 100:main.c        ****         value_text[i] = num % 10;
 173              		.loc 1 100 0 discriminator 3
 174 003a 013A     		subs	r2, r2, #1
 175              	.LVL24:
 176              	.L9:
 100:main.c        ****         value_text[i] = num % 10;
 177              		.loc 1 100 0 is_stmt 0 discriminator 1
 178 003c 002A     		cmp	r2, #0
 179 003e EEDA     		bge	.L10
ARM GAS  C:\Users\ANDREW~1\AppData\Local\Temp\ccEnuc4u.s 			page 6


 180 0040 0024     		movs	r4, #0
 181 0042 09E0     		b	.L11
 182              	.LVL25:
 183              	.L12:
 184              	.LBE2:
 185              	.LBB3:
 103:main.c        ****     }
 104:main.c        ****     
 105:main.c        ****     for (int i = 0; i < num_digits; ++i) {
 106:main.c        ****         UART_1_WriteTxData(value_text[i]+0x30); //display number
 186              		.loc 1 106 0 is_stmt 1 discriminator 3
 187 0044 074B     		ldr	r3, .L14+4
 188 0046 185D     		ldrb	r0, [r3, r4]	@ zero_extendqisi2
 189 0048 3030     		adds	r0, r0, #48
 190 004a C0B2     		uxtb	r0, r0
 191 004c FFF7FEFF 		bl	UART_1_WriteTxData
 192              	.LVL26:
 107:main.c        ****         CyDelay(5);
 193              		.loc 1 107 0 discriminator 3
 194 0050 0520     		movs	r0, #5
 195 0052 FFF7FEFF 		bl	CyDelay
 196              	.LVL27:
 105:main.c        ****         UART_1_WriteTxData(value_text[i]+0x30); //display number
 197              		.loc 1 105 0 discriminator 3
 198 0056 0134     		adds	r4, r4, #1
 199              	.LVL28:
 200              	.L11:
 105:main.c        ****         UART_1_WriteTxData(value_text[i]+0x30); //display number
 201              		.loc 1 105 0 is_stmt 0 discriminator 1
 202 0058 A542     		cmp	r5, r4
 203 005a F3DC     		bgt	.L12
 204              	.LBE3:
 108:main.c        ****     }
 109:main.c        ****     
 110:main.c        **** }
 205              		.loc 1 110 0 is_stmt 1
 206 005c 38BD     		pop	{r3, r4, r5, pc}
 207              	.LVL29:
 208              	.L15:
 209 005e 00BF     		.align	2
 210              	.L14:
 211 0060 67666666 		.word	1717986919
 212 0064 00000000 		.word	value_text
 213              		.cfi_endproc
 214              	.LFE65:
 215              		.size	print_uart, .-print_uart
 216              		.section	.text.ReadTimer,"ax",%progbits
 217              		.align	2
 218              		.global	ReadTimer
 219              		.thumb
 220              		.thumb_func
 221              		.type	ReadTimer, %function
 222              	ReadTimer:
 223              	.LFB63:
  20:main.c        ****     time = (int)(Timer_1_ReadPeriod()-Timer_1_ReadCounter());
 224              		.loc 1 20 0
 225              		.cfi_startproc
ARM GAS  C:\Users\ANDREW~1\AppData\Local\Temp\ccEnuc4u.s 			page 7


 226              		@ args = 0, pretend = 0, frame = 0
 227              		@ frame_needed = 0, uses_anonymous_args = 0
 228 0000 10B5     		push	{r4, lr}
 229              		.cfi_def_cfa_offset 8
 230              		.cfi_offset 4, -8
 231              		.cfi_offset 14, -4
  21:main.c        ****     
 232              		.loc 1 21 0
 233 0002 FFF7FEFF 		bl	Timer_1_ReadPeriod
 234              	.LVL30:
 235 0006 0446     		mov	r4, r0
 236 0008 FFF7FEFF 		bl	Timer_1_ReadCounter
 237              	.LVL31:
 238 000c 201A     		subs	r0, r4, r0
 239 000e 0C4B     		ldr	r3, .L18
 240 0010 1860     		str	r0, [r3]
  23:main.c        ****     CyDelay(5);
 241              		.loc 1 23 0
 242 0012 FFF7FEFF 		bl	print_uart
 243              	.LVL32:
  24:main.c        ****     UART_1_PutString("\n");
 244              		.loc 1 24 0
 245 0016 0520     		movs	r0, #5
 246 0018 FFF7FEFF 		bl	CyDelay
 247              	.LVL33:
  25:main.c        ****     CyDelay(5);
 248              		.loc 1 25 0
 249 001c 0948     		ldr	r0, .L18+4
 250 001e FFF7FEFF 		bl	UART_1_PutString
 251              	.LVL34:
  26:main.c        ****     Timer_1_Start();
 252              		.loc 1 26 0
 253 0022 0520     		movs	r0, #5
 254 0024 FFF7FEFF 		bl	CyDelay
 255              	.LVL35:
  27:main.c        ****     
 256              		.loc 1 27 0
 257 0028 FFF7FEFF 		bl	Timer_1_Start
 258              	.LVL36:
  29:main.c        ****     CyDelay(5);
 259              		.loc 1 29 0
 260 002c 0120     		movs	r0, #1
 261 002e FFF7FEFF 		bl	Control_Reg_1_Write
 262              	.LVL37:
  30:main.c        ****     Control_Reg_1_Write(0); // Reset counter to do more pulses
 263              		.loc 1 30 0
 264 0032 0520     		movs	r0, #5
 265 0034 FFF7FEFF 		bl	CyDelay
 266              	.LVL38:
  31:main.c        **** }
 267              		.loc 1 31 0
 268 0038 0020     		movs	r0, #0
 269 003a FFF7FEFF 		bl	Control_Reg_1_Write
 270              	.LVL39:
 271 003e 10BD     		pop	{r4, pc}
 272              	.L19:
 273              		.align	2
ARM GAS  C:\Users\ANDREW~1\AppData\Local\Temp\ccEnuc4u.s 			page 8


 274              	.L18:
 275 0040 00000000 		.word	.LANCHOR0
 276 0044 0C000000 		.word	.LC1
 277              		.cfi_endproc
 278              	.LFE63:
 279              		.size	ReadTimer, .-ReadTimer
 280              		.comm	value_text,16,4
 281              		.global	time
 282              		.section	.rodata.str1.4,"aMS",%progbits,1
 283              		.align	2
 284              	.LC0:
 285 0000 53746172 		.ascii	"Start UART\000"
 285      74205541 
 285      525400
 286 000b 00       		.space	1
 287              	.LC1:
 288 000c 0A00     		.ascii	"\012\000"
 289              		.bss
 290              		.align	2
 291              		.set	.LANCHOR0,. + 0
 292              		.type	time, %object
 293              		.size	time, 4
 294              	time:
 295 0000 00000000 		.space	4
 296              		.text
 297              	.Letext0:
 298              		.file 2 "d:\\monash_apps\\psoc creator\\4.4\\psoc creator\\import\\gnu\\arm\\5.4.1\\arm-none-eabi\
 299              		.file 3 "d:\\monash_apps\\psoc creator\\4.4\\psoc creator\\import\\gnu\\arm\\5.4.1\\arm-none-eabi\
 300              		.file 4 "Generated_Source\\PSoC5/cytypes.h"
 301              		.file 5 "Generated_Source\\PSoC5/core_cm3.h"
 302              		.file 6 "Generated_Source\\PSoC5/PWM_1.h"
 303              		.file 7 "Generated_Source\\PSoC5/Control_Reg_1.h"
 304              		.file 8 "Generated_Source\\PSoC5/colour_S0.h"
 305              		.file 9 "Generated_Source\\PSoC5/colour_S1.h"
 306              		.file 10 "Generated_Source\\PSoC5/colour_S2.h"
 307              		.file 11 "Generated_Source\\PSoC5/colour_S3.h"
 308              		.file 12 "Generated_Source\\PSoC5/Timer_1.h"
 309              		.file 13 "Generated_Source\\PSoC5/UART_1.h"
 310              		.file 14 "Generated_Source\\PSoC5/CyLib.h"
 311              		.file 15 "Generated_Source\\PSoC5/isr_1.h"