ARM GAS  C:\Users\Nulan\AppData\Local\Temp\ccfOIdP4.s 			page 1


   1              		.syntax unified
   2              		.cpu cortex-m3
   3              		.fpu softvfp
   4              		.eabi_attribute 20, 1
   5              		.eabi_attribute 21, 1
   6              		.eabi_attribute 23, 3
   7              		.eabi_attribute 24, 1
   8              		.eabi_attribute 25, 1
   9              		.eabi_attribute 26, 1
  10              		.eabi_attribute 30, 1
  11              		.eabi_attribute 34, 1
  12              		.eabi_attribute 18, 4
  13              		.thumb
  14              		.syntax unified
  15              		.file	"main.c"
  16              		.text
  17              	.Ltext0:
  18              		.cfi_sections	.debug_frame
  19              		.section	.text.millis,"ax",%progbits
  20              		.align	2
  21              		.global	millis
  22              		.thumb
  23              		.thumb_func
  24              		.type	millis, %function
  25              	millis:
  26              	.LFB64:
  27              		.file 1 "main.c"
   1:main.c        **** /* ========================================
   2:main.c        ****  *
   3:main.c        ****  * Copyright YOUR COMPANY, THE YEAR
   4:main.c        ****  * All Rights Reserved
   5:main.c        ****  * UNPUBLISHED, LICENSED SOFTWARE.
   6:main.c        ****  *
   7:main.c        ****  * CONFIDENTIAL AND PROPRIETARY INFORMATION
   8:main.c        ****  * WHICH IS THE PROPERTY OF your company.
   9:main.c        ****  *
  10:main.c        ****  * ========================================
  11:main.c        **** */
  12:main.c        **** #include "project.h"
  13:main.c        **** #include <math.h>
  14:main.c        **** #include <stdlib.h>
  15:main.c        **** #include <stdio.h>
  16:main.c        **** #include <ctype.h>
  17:main.c        **** 
  18:main.c        **** // Constants
  19:main.c        **** float Voltage_max = 25000;
  20:main.c        **** float velocity_max = 3900 * 4;
  21:main.c        **** float accel_max = 30000 * 4;
  22:main.c        **** float bias_voltage = 2000;
  23:main.c        **** float K_velocity = 6.23441 / 4;
  24:main.c        **** float K_acceleration = 0.0037696 / 4;
  25:main.c        **** float Kp = 0.0565969969;
  26:main.c        **** float Kd = 0.000390726;
  27:main.c        **** float Ki = 1.43001626;
  28:main.c        **** float control_period = 0.002;
  29:main.c        **** 
  30:main.c        **** typedef struct PID{
ARM GAS  C:\Users\Nulan\AppData\Local\Temp\ccfOIdP4.s 			page 2


  31:main.c        ****     float Kp;
  32:main.c        ****     float Ki;
  33:main.c        ****     float Kd;
  34:main.c        ****     float intergral_error;
  35:main.c        ****     float prev_error;
  36:main.c        ****     float err;
  37:main.c        ****     int control_signal;
  38:main.c        ****     float control_freq;
  39:main.c        ****     int multiplier;
  40:main.c        ****     int32 current_encoder_val;
  41:main.c        ****     int32 prev_encoder_val;
  42:main.c        **** } PID;
  43:main.c        **** 
  44:main.c        **** typedef struct FeedForward{
  45:main.c        ****     float multiplier;
  46:main.c        ****     float control_signal;
  47:main.c        ****     float K_offset;
  48:main.c        ****     float K_velocity;
  49:main.c        ****     float K_acceleration;
  50:main.c        **** } FeedForward;
  51:main.c        **** 
  52:main.c        **** typedef struct motionParams{
  53:main.c        ****     float ta;
  54:main.c        ****     float tc;
  55:main.c        ****     float tcf;
  56:main.c        ****     float T;
  57:main.c        ****     float Vm;
  58:main.c        ****     float s_req;
  59:main.c        ****     int control_period;
  60:main.c        ****     float velocity;
  61:main.c        ****     float acceleration;
  62:main.c        ****     float time_step;
  63:main.c        ****     int32 previous_timestep;
  64:main.c        **** } motionParams;
  65:main.c        **** 
  66:main.c        **** 
  67:main.c        **** int32 millis()
  68:main.c        **** {
  28              		.loc 1 68 0
  29              		.cfi_startproc
  30              		@ args = 0, pretend = 0, frame = 0
  31              		@ frame_needed = 0, uses_anonymous_args = 0
  32 0000 10B5     		push	{r4, lr}
  33              		.cfi_def_cfa_offset 8
  34              		.cfi_offset 4, -8
  35              		.cfi_offset 14, -4
  69:main.c        ****     return (GlobalClock_ReadPeriod() - GlobalClock_ReadCounter());   
  36              		.loc 1 69 0
  37 0002 FFF7FEFF 		bl	GlobalClock_ReadPeriod
  38              	.LVL0:
  39 0006 0446     		mov	r4, r0
  40 0008 FFF7FEFF 		bl	GlobalClock_ReadCounter
  41              	.LVL1:
  70:main.c        **** }
  42              		.loc 1 70 0
  43 000c 201A     		subs	r0, r4, r0
  44 000e 10BD     		pop	{r4, pc}
ARM GAS  C:\Users\Nulan\AppData\Local\Temp\ccfOIdP4.s 			page 3


  45              		.cfi_endproc
  46              	.LFE64:
  47              		.size	millis, .-millis
  48              		.global	__aeabi_fmul
  49              		.global	__aeabi_f2d
  50              		.global	__aeabi_d2f
  51              		.global	__aeabi_fcmple
  52              		.global	__aeabi_fdiv
  53              		.global	__aeabi_fadd
  54              		.global	__aeabi_fsub
  55              		.section	.text.setupFeedForwardController,"ax",%progbits
  56              		.align	2
  57              		.global	setupFeedForwardController
  58              		.thumb
  59              		.thumb_func
  60              		.type	setupFeedForwardController, %function
  61              	setupFeedForwardController:
  62              	.LFB65:
  71:main.c        **** 
  72:main.c        **** 
  73:main.c        **** void setupFeedForwardController(motionParams* motion)
  74:main.c        **** {
  63              		.loc 1 74 0
  64              		.cfi_startproc
  65              		@ args = 0, pretend = 0, frame = 0
  66              		@ frame_needed = 0, uses_anonymous_args = 0
  67              	.LVL2:
  68 0000 70B5     		push	{r4, r5, r6, lr}
  69              		.cfi_def_cfa_offset 16
  70              		.cfi_offset 4, -16
  71              		.cfi_offset 5, -12
  72              		.cfi_offset 6, -8
  73              		.cfi_offset 14, -4
  74 0002 0446     		mov	r4, r0
  75:main.c        ****     // Call this before every major action of the controller, since it will 
  76:main.c        ****     // calculate the controller parameters.
  77:main.c        ****     motion->Vm = sqrt(motion->s_req * accel_max);
  75              		.loc 1 77 0
  76 0004 1F4D     		ldr	r5, .L10
  77 0006 2968     		ldr	r1, [r5]	@ float
  78 0008 4069     		ldr	r0, [r0, #20]	@ float
  79              	.LVL3:
  80 000a FFF7FEFF 		bl	__aeabi_fmul
  81              	.LVL4:
  82 000e 0646     		mov	r6, r0
  83 0010 3046     		mov	r0, r6
  84 0012 FFF7FEFF 		bl	__aeabi_f2d
  85              	.LVL5:
  86 0016 FFF7FEFF 		bl	sqrt
  87              	.LVL6:
  88 001a FFF7FEFF 		bl	__aeabi_d2f
  89              	.LVL7:
  90 001e 0646     		mov	r6, r0
  91 0020 2061     		str	r0, [r4, #16]	@ float
  78:main.c        ****     if (motion->Vm <= velocity_max){
  92              		.loc 1 78 0
  93 0022 6D68     		ldr	r5, [r5, #4]	@ float
ARM GAS  C:\Users\Nulan\AppData\Local\Temp\ccfOIdP4.s 			page 4


  94 0024 2946     		mov	r1, r5
  95 0026 FFF7FEFF 		bl	__aeabi_fcmple
  96              	.LVL8:
  97 002a 68B1     		cbz	r0, .L8
  79:main.c        ****         motion->ta = motion->Vm / accel_max;
  98              		.loc 1 79 0
  99 002c 154B     		ldr	r3, .L10
 100 002e 1968     		ldr	r1, [r3]	@ float
 101 0030 3046     		mov	r0, r6
 102 0032 FFF7FEFF 		bl	__aeabi_fdiv
 103              	.LVL9:
 104 0036 0146     		mov	r1, r0
 105 0038 2060     		str	r0, [r4]	@ float
  80:main.c        ****         motion->T = 2 * motion->ta;
 106              		.loc 1 80 0
 107 003a FFF7FEFF 		bl	__aeabi_fadd
 108              	.LVL10:
 109 003e E060     		str	r0, [r4, #12]	@ float
  81:main.c        ****         motion->tc = 0;
 110              		.loc 1 81 0
 111 0040 0023     		movs	r3, #0
 112 0042 6360     		str	r3, [r4, #4]	@ float
  82:main.c        ****         motion->tcf = 0;
 113              		.loc 1 82 0
 114 0044 A360     		str	r3, [r4, #8]	@ float
 115 0046 70BD     		pop	{r4, r5, r6, pc}
 116              	.LVL11:
 117              	.L8:
  83:main.c        ****     }else{
  84:main.c        ****         motion->ta = velocity_max / accel_max;
 118              		.loc 1 84 0
 119 0048 0E4E     		ldr	r6, .L10
 120 004a 3168     		ldr	r1, [r6]	@ float
 121 004c 2846     		mov	r0, r5
 122 004e FFF7FEFF 		bl	__aeabi_fdiv
 123              	.LVL12:
 124 0052 0546     		mov	r5, r0
 125 0054 2060     		str	r0, [r4]	@ float
  85:main.c        ****         motion->tc = motion->s_req / velocity_max - motion->ta;
 126              		.loc 1 85 0
 127 0056 7168     		ldr	r1, [r6, #4]	@ float
 128 0058 6069     		ldr	r0, [r4, #20]	@ float
 129 005a FFF7FEFF 		bl	__aeabi_fdiv
 130              	.LVL13:
 131 005e 2946     		mov	r1, r5
 132 0060 FFF7FEFF 		bl	__aeabi_fsub
 133              	.LVL14:
 134 0064 0646     		mov	r6, r0
 135 0066 6060     		str	r0, [r4, #4]	@ float
  86:main.c        ****         motion->T = 2 * motion->ta + motion->tc;
 136              		.loc 1 86 0
 137 0068 2946     		mov	r1, r5
 138 006a 2846     		mov	r0, r5
 139 006c FFF7FEFF 		bl	__aeabi_fadd
 140              	.LVL15:
 141 0070 0146     		mov	r1, r0
 142 0072 3046     		mov	r0, r6
ARM GAS  C:\Users\Nulan\AppData\Local\Temp\ccfOIdP4.s 			page 5


 143 0074 FFF7FEFF 		bl	__aeabi_fadd
 144              	.LVL16:
 145 0078 E060     		str	r0, [r4, #12]	@ float
  87:main.c        ****         motion->tcf = motion->T - motion->ta;
 146              		.loc 1 87 0
 147 007a 2946     		mov	r1, r5
 148 007c FFF7FEFF 		bl	__aeabi_fsub
 149              	.LVL17:
 150 0080 A060     		str	r0, [r4, #8]	@ float
 151 0082 70BD     		pop	{r4, r5, r6, pc}
 152              	.LVL18:
 153              	.L11:
 154              		.align	2
 155              	.L10:
 156 0084 00000000 		.word	.LANCHOR0
 157              		.cfi_endproc
 158              	.LFE65:
 159              		.size	setupFeedForwardController, .-setupFeedForwardController
 160              		.global	__aeabi_i2f
 161              		.global	__aeabi_f2iz
 162              		.section	.text.pidControl,"ax",%progbits
 163              		.align	2
 164              		.global	pidControl
 165              		.thumb
 166              		.thumb_func
 167              		.type	pidControl, %function
 168              	pidControl:
 169              	.LFB66:
  88:main.c        ****     }
  89:main.c        **** }
  90:main.c        **** 
  91:main.c        **** void pidControl(PID* pid, float target_speed, float measured_speed)
  92:main.c        **** {
 170              		.loc 1 92 0
 171              		.cfi_startproc
 172              		@ args = 0, pretend = 0, frame = 0
 173              		@ frame_needed = 0, uses_anonymous_args = 0
 174              	.LVL19:
 175 0000 2DE9F843 		push	{r3, r4, r5, r6, r7, r8, r9, lr}
 176              		.cfi_def_cfa_offset 32
 177              		.cfi_offset 3, -32
 178              		.cfi_offset 4, -28
 179              		.cfi_offset 5, -24
 180              		.cfi_offset 6, -20
 181              		.cfi_offset 7, -16
 182              		.cfi_offset 8, -12
 183              		.cfi_offset 9, -8
 184              		.cfi_offset 14, -4
 185 0004 0446     		mov	r4, r0
 186 0006 0846     		mov	r0, r1
 187              	.LVL20:
  93:main.c        ****     pid->err = target_speed - measured_speed;
 188              		.loc 1 93 0
 189 0008 1146     		mov	r1, r2
 190              	.LVL21:
 191 000a FFF7FEFF 		bl	__aeabi_fsub
 192              	.LVL22:
ARM GAS  C:\Users\Nulan\AppData\Local\Temp\ccfOIdP4.s 			page 6


 193 000e 0546     		mov	r5, r0
 194 0010 6061     		str	r0, [r4, #20]	@ float
  94:main.c        ****     pid->control_signal = pid->multiplier * (pid->Kp * pid->err + pid->Ki * pid->intergral_error + 
 195              		.loc 1 94 0
 196 0012 D4F82080 		ldr	r8, [r4, #32]
 197 0016 2168     		ldr	r1, [r4]	@ float
 198 0018 FFF7FEFF 		bl	__aeabi_fmul
 199              	.LVL23:
 200 001c 0746     		mov	r7, r0
 201 001e E668     		ldr	r6, [r4, #12]	@ float
 202 0020 3146     		mov	r1, r6
 203 0022 6068     		ldr	r0, [r4, #4]	@ float
 204 0024 FFF7FEFF 		bl	__aeabi_fmul
 205              	.LVL24:
 206 0028 0146     		mov	r1, r0
 207 002a 3846     		mov	r0, r7
 208 002c FFF7FEFF 		bl	__aeabi_fadd
 209              	.LVL25:
 210 0030 0746     		mov	r7, r0
 211 0032 D4F80890 		ldr	r9, [r4, #8]	@ float
 212 0036 2169     		ldr	r1, [r4, #16]	@ float
 213 0038 2846     		mov	r0, r5
 214 003a FFF7FEFF 		bl	__aeabi_fsub
 215              	.LVL26:
 216 003e 0146     		mov	r1, r0
 217 0040 4846     		mov	r0, r9
 218 0042 FFF7FEFF 		bl	__aeabi_fmul
 219              	.LVL27:
 220 0046 0146     		mov	r1, r0
 221 0048 3846     		mov	r0, r7
 222 004a FFF7FEFF 		bl	__aeabi_fadd
 223              	.LVL28:
 224 004e 0746     		mov	r7, r0
 225 0050 4046     		mov	r0, r8
 226 0052 FFF7FEFF 		bl	__aeabi_i2f
 227              	.LVL29:
 228 0056 3946     		mov	r1, r7
 229 0058 FFF7FEFF 		bl	__aeabi_fmul
 230              	.LVL30:
 231 005c FFF7FEFF 		bl	__aeabi_f2iz
 232              	.LVL31:
 233 0060 A061     		str	r0, [r4, #24]
  95:main.c        ****     pid->prev_error = pid->err;
 234              		.loc 1 95 0
 235 0062 2561     		str	r5, [r4, #16]	@ float
  96:main.c        ****     pid->intergral_error += pid->err;
 236              		.loc 1 96 0
 237 0064 3146     		mov	r1, r6
 238 0066 2846     		mov	r0, r5
 239 0068 FFF7FEFF 		bl	__aeabi_fadd
 240              	.LVL32:
 241 006c E060     		str	r0, [r4, #12]	@ float
 242 006e BDE8F883 		pop	{r3, r4, r5, r6, r7, r8, r9, pc}
 243              		.cfi_endproc
 244              	.LFE66:
 245              		.size	pidControl, .-pidControl
 246 0072 00BF     		.section	.text.feedForwardControl,"ax",%progbits
ARM GAS  C:\Users\Nulan\AppData\Local\Temp\ccfOIdP4.s 			page 7


 247              		.align	2
 248              		.global	feedForwardControl
 249              		.thumb
 250              		.thumb_func
 251              		.type	feedForwardControl, %function
 252              	feedForwardControl:
 253              	.LFB67:
  97:main.c        **** }
  98:main.c        **** 
  99:main.c        **** void feedForwardControl(FeedForward* ff, float velocity, float acceleration){
 254              		.loc 1 99 0
 255              		.cfi_startproc
 256              		@ args = 0, pretend = 0, frame = 0
 257              		@ frame_needed = 0, uses_anonymous_args = 0
 258              	.LVL33:
 259 0000 F8B5     		push	{r3, r4, r5, r6, r7, lr}
 260              		.cfi_def_cfa_offset 24
 261              		.cfi_offset 3, -24
 262              		.cfi_offset 4, -20
 263              		.cfi_offset 5, -16
 264              		.cfi_offset 6, -12
 265              		.cfi_offset 7, -8
 266              		.cfi_offset 14, -4
 267 0002 0446     		mov	r4, r0
 268 0004 1746     		mov	r7, r2
 100:main.c        ****     ff->control_signal = (ff->multiplier) * (ff->K_offset + ff->K_velocity * velocity + ff->K_accel
 269              		.loc 1 100 0
 270 0006 0568     		ldr	r5, [r0]	@ float
 271 0008 8668     		ldr	r6, [r0, #8]	@ float
 272 000a C068     		ldr	r0, [r0, #12]	@ float
 273              	.LVL34:
 274 000c FFF7FEFF 		bl	__aeabi_fmul
 275              	.LVL35:
 276 0010 0146     		mov	r1, r0
 277 0012 3046     		mov	r0, r6
 278 0014 FFF7FEFF 		bl	__aeabi_fadd
 279              	.LVL36:
 280 0018 0646     		mov	r6, r0
 281 001a 3946     		mov	r1, r7
 282 001c 2069     		ldr	r0, [r4, #16]	@ float
 283 001e FFF7FEFF 		bl	__aeabi_fmul
 284              	.LVL37:
 285 0022 0146     		mov	r1, r0
 286 0024 3046     		mov	r0, r6
 287 0026 FFF7FEFF 		bl	__aeabi_fadd
 288              	.LVL38:
 289 002a 0146     		mov	r1, r0
 290 002c 2846     		mov	r0, r5
 291 002e FFF7FEFF 		bl	__aeabi_fmul
 292              	.LVL39:
 293 0032 6060     		str	r0, [r4, #4]	@ float
 294 0034 F8BD     		pop	{r3, r4, r5, r6, r7, pc}
 295              		.cfi_endproc
 296              	.LFE67:
 297              		.size	feedForwardControl, .-feedForwardControl
 298 0036 00BF     		.section	.text.writePWM,"ax",%progbits
 299              		.align	2
ARM GAS  C:\Users\Nulan\AppData\Local\Temp\ccfOIdP4.s 			page 8


 300              		.global	writePWM
 301              		.thumb
 302              		.thumb_func
 303              		.type	writePWM, %function
 304              	writePWM:
 305              	.LFB68:
 101:main.c        **** }
 102:main.c        **** 
 103:main.c        **** void writePWM(FeedForward* ff1, PID* pid1, FeedForward* ff2, PID* pid2)
 104:main.c        **** {
 306              		.loc 1 104 0
 307              		.cfi_startproc
 308              		@ args = 0, pretend = 0, frame = 0
 309              		@ frame_needed = 0, uses_anonymous_args = 0
 310              	.LVL40:
 311 0000 70B5     		push	{r4, r5, r6, lr}
 312              		.cfi_def_cfa_offset 16
 313              		.cfi_offset 4, -16
 314              		.cfi_offset 5, -12
 315              		.cfi_offset 6, -8
 316              		.cfi_offset 14, -4
 317 0002 1646     		mov	r6, r2
 318 0004 1D46     		mov	r5, r3
 105:main.c        ****     int pwm_value = ff1->control_signal + pid1->control_signal;
 319              		.loc 1 105 0
 320 0006 4468     		ldr	r4, [r0, #4]	@ float
 321 0008 8869     		ldr	r0, [r1, #24]
 322              	.LVL41:
 323 000a FFF7FEFF 		bl	__aeabi_i2f
 324              	.LVL42:
 325 000e 2146     		mov	r1, r4
 326 0010 FFF7FEFF 		bl	__aeabi_fadd
 327              	.LVL43:
 328 0014 FFF7FEFF 		bl	__aeabi_f2iz
 329              	.LVL44:
 106:main.c        ****     Motor_1_IN1_Write((pwm_value > 0) ? 1 : 0);
 330              		.loc 1 106 0
 331 0018 0446     		mov	r4, r0
 332 001a 0028     		cmp	r0, #0
 333 001c D4BF     		ite	le
 334 001e 0020     		movle	r0, #0
 335              	.LVL45:
 336 0020 0120     		movgt	r0, #1
 337 0022 FFF7FEFF 		bl	Motor_1_IN1_Write
 338              	.LVL46:
 107:main.c        ****     Motor_1_IN2_Write((pwm_value < 0) ? 1 : 0);
 339              		.loc 1 107 0
 340 0026 E00F     		lsrs	r0, r4, #31
 341 0028 FFF7FEFF 		bl	Motor_1_IN2_Write
 342              	.LVL47:
 108:main.c        ****     Motor_1_PWM_WriteCompare(abs(pwm_value));
 343              		.loc 1 108 0
 344 002c 84EAE470 		eor	r0, r4, r4, asr #31
 345 0030 A0EBE470 		sub	r0, r0, r4, asr #31
 346 0034 80B2     		uxth	r0, r0
 347 0036 FFF7FEFF 		bl	Motor_1_PWM_WriteCompare
 348              	.LVL48:
ARM GAS  C:\Users\Nulan\AppData\Local\Temp\ccfOIdP4.s 			page 9


 109:main.c        ****     
 110:main.c        ****     pwm_value = ff2->control_signal + pid2->control_signal;
 349              		.loc 1 110 0
 350 003a 7468     		ldr	r4, [r6, #4]	@ float
 351              	.LVL49:
 352 003c A869     		ldr	r0, [r5, #24]
 353 003e FFF7FEFF 		bl	__aeabi_i2f
 354              	.LVL50:
 355 0042 2146     		mov	r1, r4
 356 0044 FFF7FEFF 		bl	__aeabi_fadd
 357              	.LVL51:
 358 0048 FFF7FEFF 		bl	__aeabi_f2iz
 359              	.LVL52:
 111:main.c        ****     Motor_2_IN1_Write((pwm_value > 0) ? 1 : 0);
 360              		.loc 1 111 0
 361 004c 0446     		mov	r4, r0
 362 004e 0028     		cmp	r0, #0
 363 0050 D4BF     		ite	le
 364 0052 0020     		movle	r0, #0
 365              	.LVL53:
 366 0054 0120     		movgt	r0, #1
 367 0056 FFF7FEFF 		bl	Motor_2_IN1_Write
 368              	.LVL54:
 112:main.c        ****     Motor_2_IN2_Write((pwm_value < 0) ? 1 : 0);
 369              		.loc 1 112 0
 370 005a E00F     		lsrs	r0, r4, #31
 371 005c FFF7FEFF 		bl	Motor_2_IN2_Write
 372              	.LVL55:
 113:main.c        ****     Motor_2_PWM_WriteCompare(abs(pwm_value));
 373              		.loc 1 113 0
 374 0060 84EAE470 		eor	r0, r4, r4, asr #31
 375 0064 A0EBE470 		sub	r0, r0, r4, asr #31
 376 0068 80B2     		uxth	r0, r0
 377 006a FFF7FEFF 		bl	Motor_2_PWM_WriteCompare
 378              	.LVL56:
 379 006e 70BD     		pop	{r4, r5, r6, pc}
 380              		.cfi_endproc
 381              	.LFE68:
 382              		.size	writePWM, .-writePWM
 383              		.section	.text.stopMotion,"ax",%progbits
 384              		.align	2
 385              		.global	stopMotion
 386              		.thumb
 387              		.thumb_func
 388              		.type	stopMotion, %function
 389              	stopMotion:
 390              	.LFB69:
 114:main.c        **** }
 115:main.c        ****     
 116:main.c        **** void stopMotion(FeedForward* ff1, FeedForward* ff2, PID* pid1, PID* pid2)
 117:main.c        **** {
 391              		.loc 1 117 0
 392              		.cfi_startproc
 393              		@ args = 0, pretend = 0, frame = 0
 394              		@ frame_needed = 0, uses_anonymous_args = 0
 395              	.LVL57:
 396 0000 38B5     		push	{r3, r4, r5, lr}
ARM GAS  C:\Users\Nulan\AppData\Local\Temp\ccfOIdP4.s 			page 10


 397              		.cfi_def_cfa_offset 16
 398              		.cfi_offset 3, -16
 399              		.cfi_offset 4, -12
 400              		.cfi_offset 5, -8
 401              		.cfi_offset 14, -4
 402 0002 0C46     		mov	r4, r1
 403 0004 1146     		mov	r1, r2
 404              	.LVL58:
 118:main.c        ****     ff1->control_signal = 0;
 405              		.loc 1 118 0
 406 0006 0022     		movs	r2, #0
 407              	.LVL59:
 408 0008 4260     		str	r2, [r0, #4]	@ float
 119:main.c        ****     ff2->control_signal = 0;
 409              		.loc 1 119 0
 410 000a 6260     		str	r2, [r4, #4]	@ float
 120:main.c        ****     pid1->control_signal = 0;
 411              		.loc 1 120 0
 412 000c 0022     		movs	r2, #0
 413 000e 8A61     		str	r2, [r1, #24]
 121:main.c        ****     pid2->control_signal = 0;
 414              		.loc 1 121 0
 415 0010 9A61     		str	r2, [r3, #24]
 122:main.c        ****     writePWM(ff1, pid1, ff2, pid2);
 416              		.loc 1 122 0
 417 0012 2246     		mov	r2, r4
 418 0014 FFF7FEFF 		bl	writePWM
 419              	.LVL60:
 420 0018 38BD     		pop	{r3, r4, r5, pc}
 421              		.cfi_endproc
 422              	.LFE69:
 423              		.size	stopMotion, .-stopMotion
 424              		.global	__aeabi_fcmplt
 425              		.global	__aeabi_fcmpge
 426              		.global	__aeabi_fcmpgt
 427 001a 00BF     		.section	.text.feedForwardTrajectory,"ax",%progbits
 428              		.align	2
 429              		.global	feedForwardTrajectory
 430              		.thumb
 431              		.thumb_func
 432              		.type	feedForwardTrajectory, %function
 433              	feedForwardTrajectory:
 434              	.LFB70:
 123:main.c        **** }
 124:main.c        **** 
 125:main.c        **** void feedForwardTrajectory(motionParams* motion, FeedForward* ff1, FeedForward* ff2, PID* pid1, PID
 126:main.c        **** {
 435              		.loc 1 126 0
 436              		.cfi_startproc
 437              		@ args = 4, pretend = 0, frame = 8
 438              		@ frame_needed = 0, uses_anonymous_args = 0
 439              	.LVL61:
 440 0000 2DE9F04F 		push	{r4, r5, r6, r7, r8, r9, r10, fp, lr}
 441              		.cfi_def_cfa_offset 36
 442              		.cfi_offset 4, -36
 443              		.cfi_offset 5, -32
 444              		.cfi_offset 6, -28
ARM GAS  C:\Users\Nulan\AppData\Local\Temp\ccfOIdP4.s 			page 11


 445              		.cfi_offset 7, -24
 446              		.cfi_offset 8, -20
 447              		.cfi_offset 9, -16
 448              		.cfi_offset 10, -12
 449              		.cfi_offset 11, -8
 450              		.cfi_offset 14, -4
 451 0004 83B0     		sub	sp, sp, #12
 452              		.cfi_def_cfa_offset 48
 453 0006 0446     		mov	r4, r0
 454 0008 0191     		str	r1, [sp, #4]
 455 000a 9046     		mov	r8, r2
 456 000c 1E46     		mov	r6, r3
 457 000e 0C9D     		ldr	r5, [sp, #48]
 127:main.c        ****     if ( (millis() - motion->previous_timestep) >= motion->control_period ){
 458              		.loc 1 127 0
 459 0010 FFF7FEFF 		bl	millis
 460              	.LVL62:
 461 0014 A36A     		ldr	r3, [r4, #40]
 462 0016 C01A     		subs	r0, r0, r3
 463 0018 A369     		ldr	r3, [r4, #24]
 464 001a 9842     		cmp	r0, r3
 465 001c C0F2A180 		blt	.L20
 128:main.c        ****         motion->time_step += control_period;
 466              		.loc 1 128 0
 467 0020 514B     		ldr	r3, .L41
 468 0022 9968     		ldr	r1, [r3, #8]	@ float
 469 0024 606A     		ldr	r0, [r4, #36]	@ float
 470 0026 FFF7FEFF 		bl	__aeabi_fadd
 471              	.LVL63:
 472 002a 6062     		str	r0, [r4, #36]	@ float
 129:main.c        ****         motion->previous_timestep = millis();
 473              		.loc 1 129 0
 474 002c FFF7FEFF 		bl	millis
 475              	.LVL64:
 476 0030 A062     		str	r0, [r4, #40]
 130:main.c        ****         pid1->current_encoder_val = QuadDec_1_GetCounter();
 477              		.loc 1 130 0
 478 0032 FFF7FEFF 		bl	QuadDec_1_GetCounter
 479              	.LVL65:
 480 0036 7062     		str	r0, [r6, #36]
 131:main.c        ****         pid2->current_encoder_val = QuadDec_2_GetCounter();
 481              		.loc 1 131 0
 482 0038 FFF7FEFF 		bl	QuadDec_2_GetCounter
 483              	.LVL66:
 484 003c 6862     		str	r0, [r5, #36]
 132:main.c        **** 
 133:main.c        ****         if (motion->time_step < motion->ta){
 485              		.loc 1 133 0
 486 003e D4F82490 		ldr	r9, [r4, #36]	@ float
 487 0042 D4F800A0 		ldr	r10, [r4]	@ float
 488 0046 5146     		mov	r1, r10
 489 0048 4846     		mov	r0, r9
 490 004a FFF7FEFF 		bl	__aeabi_fcmplt
 491              	.LVL67:
 492 004e 50B1     		cbz	r0, .L37
 134:main.c        ****             motion->velocity = accel_max * motion->time_step;
 493              		.loc 1 134 0
ARM GAS  C:\Users\Nulan\AppData\Local\Temp\ccfOIdP4.s 			page 12


 494 0050 454B     		ldr	r3, .L41
 495 0052 D3F800A0 		ldr	r10, [r3]	@ float
 496 0056 5146     		mov	r1, r10
 497 0058 4846     		mov	r0, r9
 498 005a FFF7FEFF 		bl	__aeabi_fmul
 499              	.LVL68:
 500 005e E061     		str	r0, [r4, #28]	@ float
 135:main.c        ****             motion->acceleration = accel_max;
 501              		.loc 1 135 0
 502 0060 C4F820A0 		str	r10, [r4, #32]	@ float
 503 0064 4BE0     		b	.L24
 504              	.L37:
 136:main.c        ****         } else if (motion->Vm <= velocity_max){
 505              		.loc 1 136 0
 506 0066 D4F810B0 		ldr	fp, [r4, #16]	@ float
 507 006a 3F4B     		ldr	r3, .L41
 508 006c 5F68     		ldr	r7, [r3, #4]	@ float
 509 006e 3946     		mov	r1, r7
 510 0070 5846     		mov	r0, fp
 511 0072 FFF7FEFF 		bl	__aeabi_fcmple
 512              	.LVL69:
 513 0076 98B1     		cbz	r0, .L38
 137:main.c        ****             motion->velocity = motion->Vm - accel_max * (motion->time_step - motion->ta);
 514              		.loc 1 137 0
 515 0078 5146     		mov	r1, r10
 516 007a 4846     		mov	r0, r9
 517 007c FFF7FEFF 		bl	__aeabi_fsub
 518              	.LVL70:
 519 0080 394B     		ldr	r3, .L41
 520 0082 D3F80090 		ldr	r9, [r3]	@ float
 521 0086 4946     		mov	r1, r9
 522 0088 FFF7FEFF 		bl	__aeabi_fmul
 523              	.LVL71:
 524 008c 0146     		mov	r1, r0
 525 008e 5846     		mov	r0, fp
 526 0090 FFF7FEFF 		bl	__aeabi_fsub
 527              	.LVL72:
 528 0094 E061     		str	r0, [r4, #28]	@ float
 138:main.c        ****             motion->acceleration = -accel_max;
 529              		.loc 1 138 0
 530 0096 09F10049 		add	r9, r9, #-2147483648
 531 009a C4F82090 		str	r9, [r4, #32]	@ float
 532 009e 2EE0     		b	.L24
 533              	.L38:
 139:main.c        ****         } else if ((motion->time_step >= motion->ta) && (motion->time_step <= motion->tcf)){
 534              		.loc 1 139 0
 535 00a0 5146     		mov	r1, r10
 536 00a2 4846     		mov	r0, r9
 537 00a4 FFF7FEFF 		bl	__aeabi_fcmpge
 538              	.LVL73:
 539 00a8 40B1     		cbz	r0, .L27
 540              		.loc 1 139 0 is_stmt 0 discriminator 1
 541 00aa A168     		ldr	r1, [r4, #8]	@ float
 542 00ac 4846     		mov	r0, r9
 543 00ae FFF7FEFF 		bl	__aeabi_fcmple
 544              	.LVL74:
 545 00b2 18B1     		cbz	r0, .L27
ARM GAS  C:\Users\Nulan\AppData\Local\Temp\ccfOIdP4.s 			page 13


 140:main.c        ****             motion->velocity = velocity_max;
 546              		.loc 1 140 0 is_stmt 1
 547 00b4 E761     		str	r7, [r4, #28]	@ float
 141:main.c        ****             motion->acceleration = 0;
 548              		.loc 1 141 0
 549 00b6 0023     		movs	r3, #0
 550 00b8 2362     		str	r3, [r4, #32]	@ float
 551 00ba 20E0     		b	.L24
 552              	.L27:
 142:main.c        ****         } else if (motion->time_step > motion->tcf){
 553              		.loc 1 142 0
 554 00bc D4F808A0 		ldr	r10, [r4, #8]	@ float
 555 00c0 5146     		mov	r1, r10
 556 00c2 4846     		mov	r0, r9
 557 00c4 FFF7FEFF 		bl	__aeabi_fcmpgt
 558              	.LVL75:
 559 00c8 98B1     		cbz	r0, .L39
 143:main.c        ****             motion->velocity = velocity_max - (motion->time_step - motion->tcf) * accel_max;
 560              		.loc 1 143 0
 561 00ca 5146     		mov	r1, r10
 562 00cc 4846     		mov	r0, r9
 563 00ce FFF7FEFF 		bl	__aeabi_fsub
 564              	.LVL76:
 565 00d2 254B     		ldr	r3, .L41
 566 00d4 D3F80090 		ldr	r9, [r3]	@ float
 567 00d8 4946     		mov	r1, r9
 568 00da FFF7FEFF 		bl	__aeabi_fmul
 569              	.LVL77:
 570 00de 0146     		mov	r1, r0
 571 00e0 3846     		mov	r0, r7
 572 00e2 FFF7FEFF 		bl	__aeabi_fsub
 573              	.LVL78:
 574 00e6 E061     		str	r0, [r4, #28]	@ float
 144:main.c        ****             motion->acceleration = -accel_max;
 575              		.loc 1 144 0
 576 00e8 09F10049 		add	r9, r9, #-2147483648
 577 00ec C4F82090 		str	r9, [r4, #32]	@ float
 578 00f0 05E0     		b	.L24
 579              	.L39:
 145:main.c        ****         } else {
 146:main.c        ****             // To reach here we have passed the full duration of the feed forward action, we can st
 147:main.c        ****             stopMotion(ff1, ff2, pid1, pid2);
 580              		.loc 1 147 0
 581 00f2 2B46     		mov	r3, r5
 582 00f4 3246     		mov	r2, r6
 583 00f6 4146     		mov	r1, r8
 584 00f8 0198     		ldr	r0, [sp, #4]
 585 00fa FFF7FEFF 		bl	stopMotion
 586              	.LVL79:
 587              	.L24:
 148:main.c        ****         }
 149:main.c        ****         // Update the control blocks with new control signals
 150:main.c        ****         pidControl(pid1, motion->velocity, (pid1->current_encoder_val - pid1->prev_encoder_val) * p
 588              		.loc 1 150 0
 589 00fe 706A     		ldr	r0, [r6, #36]
 590 0100 B36A     		ldr	r3, [r6, #40]
 591 0102 D6F81C90 		ldr	r9, [r6, #28]	@ float
ARM GAS  C:\Users\Nulan\AppData\Local\Temp\ccfOIdP4.s 			page 14


 592 0106 C01A     		subs	r0, r0, r3
 593 0108 FFF7FEFF 		bl	__aeabi_i2f
 594              	.LVL80:
 595 010c 4946     		mov	r1, r9
 596 010e FFF7FEFF 		bl	__aeabi_fmul
 597              	.LVL81:
 598 0112 0246     		mov	r2, r0
 599 0114 E169     		ldr	r1, [r4, #28]	@ float
 600 0116 3046     		mov	r0, r6
 601 0118 FFF7FEFF 		bl	pidControl
 602              	.LVL82:
 151:main.c        ****         pidControl(pid2, motion->velocity, (pid2->current_encoder_val - pid2->prev_encoder_val) * p
 603              		.loc 1 151 0
 604 011c 686A     		ldr	r0, [r5, #36]
 605 011e AB6A     		ldr	r3, [r5, #40]
 606 0120 D5F81C90 		ldr	r9, [r5, #28]	@ float
 607 0124 C01A     		subs	r0, r0, r3
 608 0126 FFF7FEFF 		bl	__aeabi_i2f
 609              	.LVL83:
 610 012a 4946     		mov	r1, r9
 611 012c FFF7FEFF 		bl	__aeabi_fmul
 612              	.LVL84:
 613 0130 0246     		mov	r2, r0
 614 0132 E169     		ldr	r1, [r4, #28]	@ float
 615 0134 2846     		mov	r0, r5
 616 0136 FFF7FEFF 		bl	pidControl
 617              	.LVL85:
 152:main.c        ****         feedForwardControl(ff1, motion->velocity, motion->acceleration);
 618              		.loc 1 152 0
 619 013a 226A     		ldr	r2, [r4, #32]	@ float
 620 013c E169     		ldr	r1, [r4, #28]	@ float
 621 013e 0198     		ldr	r0, [sp, #4]
 622 0140 FFF7FEFF 		bl	feedForwardControl
 623              	.LVL86:
 153:main.c        ****         feedForwardControl(ff2, motion->velocity, motion->acceleration);
 624              		.loc 1 153 0
 625 0144 226A     		ldr	r2, [r4, #32]	@ float
 626 0146 E169     		ldr	r1, [r4, #28]	@ float
 627 0148 4046     		mov	r0, r8
 628 014a FFF7FEFF 		bl	feedForwardControl
 629              	.LVL87:
 154:main.c        ****         // Write the new signals
 155:main.c        ****         writePWM(ff1, pid1, ff2, pid2);
 630              		.loc 1 155 0
 631 014e 2B46     		mov	r3, r5
 632 0150 4246     		mov	r2, r8
 633 0152 3146     		mov	r1, r6
 634 0154 0198     		ldr	r0, [sp, #4]
 635 0156 FFF7FEFF 		bl	writePWM
 636              	.LVL88:
 156:main.c        ****         // Update the previous encoder readings
 157:main.c        ****         pid1->prev_encoder_val = pid1->current_encoder_val;
 637              		.loc 1 157 0
 638 015a 736A     		ldr	r3, [r6, #36]
 639 015c B362     		str	r3, [r6, #40]
 158:main.c        ****         pid2->prev_encoder_val = pid2->current_encoder_val;
 640              		.loc 1 158 0
ARM GAS  C:\Users\Nulan\AppData\Local\Temp\ccfOIdP4.s 			page 15


 641 015e 6B6A     		ldr	r3, [r5, #36]
 642 0160 AB62     		str	r3, [r5, #40]
 643              	.L20:
 159:main.c        ****     }
 160:main.c        ****     
 161:main.c        **** }
 644              		.loc 1 161 0
 645 0162 03B0     		add	sp, sp, #12
 646              		.cfi_def_cfa_offset 36
 647              		@ sp needed
 648 0164 BDE8F08F 		pop	{r4, r5, r6, r7, r8, r9, r10, fp, pc}
 649              	.LVL89:
 650              	.L42:
 651              		.align	2
 652              	.L41:
 653 0168 00000000 		.word	.LANCHOR0
 654              		.cfi_endproc
 655              	.LFE70:
 656              		.size	feedForwardTrajectory, .-feedForwardTrajectory
 657              		.section	.text.trajectory_plan,"ax",%progbits
 658              		.align	2
 659              		.global	trajectory_plan
 660              		.thumb
 661              		.thumb_func
 662              		.type	trajectory_plan, %function
 663              	trajectory_plan:
 664              	.LFB71:
 162:main.c        **** 
 163:main.c        **** void trajectory_plan(float ticks_left, float ticks_right, FeedForward* ff1, FeedForward* ff2, PID* 
 164:main.c        **** {
 665              		.loc 1 164 0
 666              		.cfi_startproc
 667              		@ args = 8, pretend = 0, frame = 0
 668              		@ frame_needed = 0, uses_anonymous_args = 0
 669              	.LVL90:
 670 0000 2DE9F041 		push	{r4, r5, r6, r7, r8, lr}
 671              		.cfi_def_cfa_offset 24
 672              		.cfi_offset 4, -24
 673              		.cfi_offset 5, -20
 674              		.cfi_offset 6, -16
 675              		.cfi_offset 7, -12
 676              		.cfi_offset 8, -8
 677              		.cfi_offset 14, -4
 678 0004 8846     		mov	r8, r1
 679 0006 1746     		mov	r7, r2
 680 0008 1E46     		mov	r6, r3
 681 000a 069D     		ldr	r5, [sp, #24]
 682 000c 079C     		ldr	r4, [sp, #28]
 165:main.c        ****     pid1->multiplier = (ticks_left) > 0 ? 1 : -1;
 683              		.loc 1 165 0
 684 000e 0021     		movs	r1, #0
 685              	.LVL91:
 686 0010 FFF7FEFF 		bl	__aeabi_fcmpgt
 687              	.LVL92:
 688 0014 08B1     		cbz	r0, .L52
 689 0016 0123     		movs	r3, #1
 690 0018 01E0     		b	.L44
ARM GAS  C:\Users\Nulan\AppData\Local\Temp\ccfOIdP4.s 			page 16


 691              	.L52:
 692 001a 4FF0FF33 		mov	r3, #-1
 693              	.L44:
 694              		.loc 1 165 0 is_stmt 0 discriminator 4
 695 001e 2B62     		str	r3, [r5, #32]
 166:main.c        ****     pid2->multiplier = (ticks_right) > 0 ? 1 : -1;
 696              		.loc 1 166 0 is_stmt 1 discriminator 4
 697 0020 0021     		movs	r1, #0
 698 0022 4046     		mov	r0, r8
 699 0024 FFF7FEFF 		bl	__aeabi_fcmpgt
 700              	.LVL93:
 701 0028 08B1     		cbz	r0, .L53
 702              		.loc 1 166 0 is_stmt 0
 703 002a 0123     		movs	r3, #1
 704 002c 01E0     		b	.L46
 705              	.L53:
 706 002e 4FF0FF33 		mov	r3, #-1
 707              	.L46:
 708              		.loc 1 166 0 discriminator 4
 709 0032 2362     		str	r3, [r4, #32]
 167:main.c        ****     ff1->multiplier = pid1->multiplier;
 710              		.loc 1 167 0 is_stmt 1 discriminator 4
 711 0034 286A     		ldr	r0, [r5, #32]
 712 0036 FFF7FEFF 		bl	__aeabi_i2f
 713              	.LVL94:
 714 003a 3860     		str	r0, [r7]	@ float
 168:main.c        ****     ff2->multiplier = pid2->multiplier;
 715              		.loc 1 168 0 discriminator 4
 716 003c 206A     		ldr	r0, [r4, #32]
 717 003e FFF7FEFF 		bl	__aeabi_i2f
 718              	.LVL95:
 719 0042 3060     		str	r0, [r6]	@ float
 169:main.c        ****     pid1->current_encoder_val = 0;
 720              		.loc 1 169 0 discriminator 4
 721 0044 0023     		movs	r3, #0
 722 0046 6B62     		str	r3, [r5, #36]
 170:main.c        ****     pid1->prev_encoder_val = 0;
 723              		.loc 1 170 0 discriminator 4
 724 0048 AB62     		str	r3, [r5, #40]
 171:main.c        ****     pid2->current_encoder_val = 0;
 725              		.loc 1 171 0 discriminator 4
 726 004a 6362     		str	r3, [r4, #36]
 172:main.c        ****     pid2->prev_encoder_val = 0;
 727              		.loc 1 172 0 discriminator 4
 728 004c A362     		str	r3, [r4, #40]
 729 004e BDE8F081 		pop	{r4, r5, r6, r7, r8, pc}
 730              		.cfi_endproc
 731              	.LFE71:
 732              		.size	trajectory_plan, .-trajectory_plan
 733 0052 00BF     		.section	.text.init_pid,"ax",%progbits
 734              		.align	2
 735              		.global	init_pid
 736              		.thumb
 737              		.thumb_func
 738              		.type	init_pid, %function
 739              	init_pid:
 740              	.LFB72:
ARM GAS  C:\Users\Nulan\AppData\Local\Temp\ccfOIdP4.s 			page 17


 173:main.c        **** }
 174:main.c        **** 
 175:main.c        **** void init_pid(PID* pid)
 176:main.c        **** {
 741              		.loc 1 176 0
 742              		.cfi_startproc
 743              		@ args = 0, pretend = 0, frame = 0
 744              		@ frame_needed = 0, uses_anonymous_args = 0
 745              	.LVL96:
 746 0000 38B5     		push	{r3, r4, r5, lr}
 747              		.cfi_def_cfa_offset 16
 748              		.cfi_offset 3, -16
 749              		.cfi_offset 4, -12
 750              		.cfi_offset 5, -8
 751              		.cfi_offset 14, -4
 752 0002 0446     		mov	r4, r0
 177:main.c        ****     pid->control_freq = 1 / control_period;
 753              		.loc 1 177 0
 754 0004 0B4D     		ldr	r5, .L57
 755 0006 A968     		ldr	r1, [r5, #8]	@ float
 756 0008 4FF07E50 		mov	r0, #1065353216
 757              	.LVL97:
 758 000c FFF7FEFF 		bl	__aeabi_fdiv
 759              	.LVL98:
 760 0010 E061     		str	r0, [r4, #28]	@ float
 178:main.c        ****     pid->Kp = Kp;
 761              		.loc 1 178 0
 762 0012 EB68     		ldr	r3, [r5, #12]	@ float
 763 0014 2360     		str	r3, [r4]	@ float
 179:main.c        ****     pid->Ki = Ki;
 764              		.loc 1 179 0
 765 0016 2B69     		ldr	r3, [r5, #16]	@ float
 766 0018 6360     		str	r3, [r4, #4]	@ float
 180:main.c        ****     pid->Kd = Kd * pid->control_freq;
 767              		.loc 1 180 0
 768 001a 6969     		ldr	r1, [r5, #20]	@ float
 769 001c FFF7FEFF 		bl	__aeabi_fmul
 770              	.LVL99:
 771 0020 A060     		str	r0, [r4, #8]	@ float
 181:main.c        ****     pid->intergral_error = 0;
 772              		.loc 1 181 0
 773 0022 0023     		movs	r3, #0
 774 0024 E360     		str	r3, [r4, #12]	@ float
 182:main.c        ****     pid->multiplier = 1;
 775              		.loc 1 182 0
 776 0026 0122     		movs	r2, #1
 777 0028 2262     		str	r2, [r4, #32]
 183:main.c        ****     
 184:main.c        ****     pid->prev_encoder_val = 0;
 778              		.loc 1 184 0
 779 002a 0022     		movs	r2, #0
 780 002c A262     		str	r2, [r4, #40]
 185:main.c        ****     pid->prev_error = 0;
 781              		.loc 1 185 0
 782 002e 2361     		str	r3, [r4, #16]	@ float
 783 0030 38BD     		pop	{r3, r4, r5, pc}
 784              	.LVL100:
ARM GAS  C:\Users\Nulan\AppData\Local\Temp\ccfOIdP4.s 			page 18


 785              	.L58:
 786 0032 00BF     		.align	2
 787              	.L57:
 788 0034 00000000 		.word	.LANCHOR0
 789              		.cfi_endproc
 790              	.LFE72:
 791              		.size	init_pid, .-init_pid
 792              		.section	.text.init_ff,"ax",%progbits
 793              		.align	2
 794              		.global	init_ff
 795              		.thumb
 796              		.thumb_func
 797              		.type	init_ff, %function
 798              	init_ff:
 799              	.LFB73:
 186:main.c        **** }
 187:main.c        **** 
 188:main.c        **** void init_ff(FeedForward* ff)
 189:main.c        **** {
 800              		.loc 1 189 0
 801              		.cfi_startproc
 802              		@ args = 0, pretend = 0, frame = 0
 803              		@ frame_needed = 0, uses_anonymous_args = 0
 804              		@ link register save eliminated.
 805              	.LVL101:
 190:main.c        ****     ff->K_offset = bias_voltage;
 806              		.loc 1 190 0
 807 0000 034B     		ldr	r3, .L60
 808 0002 9A69     		ldr	r2, [r3, #24]	@ float
 809 0004 8260     		str	r2, [r0, #8]	@ float
 191:main.c        ****     ff->K_velocity = K_velocity;
 810              		.loc 1 191 0
 811 0006 DA69     		ldr	r2, [r3, #28]	@ float
 812 0008 C260     		str	r2, [r0, #12]	@ float
 192:main.c        ****     ff->K_acceleration = K_acceleration;
 813              		.loc 1 192 0
 814 000a 1B6A     		ldr	r3, [r3, #32]	@ float
 815 000c 0361     		str	r3, [r0, #16]	@ float
 816 000e 7047     		bx	lr
 817              	.L61:
 818              		.align	2
 819              	.L60:
 820 0010 00000000 		.word	.LANCHOR0
 821              		.cfi_endproc
 822              	.LFE73:
 823              		.size	init_ff, .-init_ff
 824              		.section	.text.startMotorSystem,"ax",%progbits
 825              		.align	2
 826              		.global	startMotorSystem
 827              		.thumb
 828              		.thumb_func
 829              		.type	startMotorSystem, %function
 830              	startMotorSystem:
 831              	.LFB74:
 193:main.c        **** }
 194:main.c        **** 
 195:main.c        **** void startMotorSystem(PID* pid1, PID* pid2, FeedForward* ff1, FeedForward* ff2)
ARM GAS  C:\Users\Nulan\AppData\Local\Temp\ccfOIdP4.s 			page 19


 196:main.c        **** {
 832              		.loc 1 196 0
 833              		.cfi_startproc
 834              		@ args = 0, pretend = 0, frame = 0
 835              		@ frame_needed = 0, uses_anonymous_args = 0
 836              	.LVL102:
 837 0000 F8B5     		push	{r3, r4, r5, r6, r7, lr}
 838              		.cfi_def_cfa_offset 24
 839              		.cfi_offset 3, -24
 840              		.cfi_offset 4, -20
 841              		.cfi_offset 5, -16
 842              		.cfi_offset 6, -12
 843              		.cfi_offset 7, -8
 844              		.cfi_offset 14, -4
 845 0002 0746     		mov	r7, r0
 846 0004 0E46     		mov	r6, r1
 847 0006 1546     		mov	r5, r2
 848 0008 1C46     		mov	r4, r3
 197:main.c        ****     QuadDec_1_Start();
 849              		.loc 1 197 0
 850 000a FFF7FEFF 		bl	QuadDec_1_Start
 851              	.LVL103:
 198:main.c        ****     QuadDec_2_Start();
 852              		.loc 1 198 0
 853 000e FFF7FEFF 		bl	QuadDec_2_Start
 854              	.LVL104:
 199:main.c        ****     Motor_1_PWM_Start();
 855              		.loc 1 199 0
 856 0012 FFF7FEFF 		bl	Motor_1_PWM_Start
 857              	.LVL105:
 200:main.c        ****     Motor_2_PWM_Start();
 858              		.loc 1 200 0
 859 0016 FFF7FEFF 		bl	Motor_2_PWM_Start
 860              	.LVL106:
 201:main.c        ****     
 202:main.c        ****     init_pid(pid1);
 861              		.loc 1 202 0
 862 001a 3846     		mov	r0, r7
 863 001c FFF7FEFF 		bl	init_pid
 864              	.LVL107:
 203:main.c        ****     init_pid(pid2);
 865              		.loc 1 203 0
 866 0020 3046     		mov	r0, r6
 867 0022 FFF7FEFF 		bl	init_pid
 868              	.LVL108:
 204:main.c        ****     init_ff(ff1);
 869              		.loc 1 204 0
 870 0026 2846     		mov	r0, r5
 871 0028 FFF7FEFF 		bl	init_ff
 872              	.LVL109:
 205:main.c        ****     init_ff(ff2);
 873              		.loc 1 205 0
 874 002c 2046     		mov	r0, r4
 875 002e FFF7FEFF 		bl	init_ff
 876              	.LVL110:
 206:main.c        ****     QuadDec_1_SetCounter(0);
 877              		.loc 1 206 0
ARM GAS  C:\Users\Nulan\AppData\Local\Temp\ccfOIdP4.s 			page 20


 878 0032 0020     		movs	r0, #0
 879 0034 FFF7FEFF 		bl	QuadDec_1_SetCounter
 880              	.LVL111:
 207:main.c        ****     QuadDec_2_SetCounter(0);
 881              		.loc 1 207 0
 882 0038 0020     		movs	r0, #0
 883 003a FFF7FEFF 		bl	QuadDec_2_SetCounter
 884              	.LVL112:
 885 003e F8BD     		pop	{r3, r4, r5, r6, r7, pc}
 886              		.cfi_endproc
 887              	.LFE74:
 888              		.size	startMotorSystem, .-startMotorSystem
 889              		.section	.text.getData,"ax",%progbits
 890              		.align	2
 891              		.global	getData
 892              		.thumb
 893              		.thumb_func
 894              		.type	getData, %function
 895              	getData:
 896              	.LFB75:
 208:main.c        **** }   
 209:main.c        **** 
 210:main.c        **** void getData(char* data)
 211:main.c        **** {
 897              		.loc 1 211 0
 898              		.cfi_startproc
 899              		@ args = 0, pretend = 0, frame = 0
 900              		@ frame_needed = 0, uses_anonymous_args = 0
 901              	.LVL113:
 902 0000 70B5     		push	{r4, r5, r6, lr}
 903              		.cfi_def_cfa_offset 16
 904              		.cfi_offset 4, -16
 905              		.cfi_offset 5, -12
 906              		.cfi_offset 6, -8
 907              		.cfi_offset 14, -4
 908 0002 0546     		mov	r5, r0
 212:main.c        ****     size_t data_size = UART_2_GetRxBufferSize();
 909              		.loc 1 212 0
 910 0004 FFF7FEFF 		bl	UART_2_GetRxBufferSize
 911              	.LVL114:
 912 0008 0646     		mov	r6, r0
 913              	.LVL115:
 213:main.c        ****     uint i;
 214:main.c        ****     for (i = 0 ; i < data_size ; i++){
 914              		.loc 1 214 0
 915 000a 0024     		movs	r4, #0
 916 000c 03E0     		b	.L65
 917              	.LVL116:
 918              	.L66:
 215:main.c        ****         data[i] = UART_2_GetByte();
 919              		.loc 1 215 0 discriminator 3
 920 000e FFF7FEFF 		bl	UART_2_GetByte
 921              	.LVL117:
 922 0012 2855     		strb	r0, [r5, r4]
 214:main.c        ****         data[i] = UART_2_GetByte();
 923              		.loc 1 214 0 discriminator 3
 924 0014 0134     		adds	r4, r4, #1
ARM GAS  C:\Users\Nulan\AppData\Local\Temp\ccfOIdP4.s 			page 21


 925              	.LVL118:
 926              	.L65:
 214:main.c        ****         data[i] = UART_2_GetByte();
 927              		.loc 1 214 0 is_stmt 0 discriminator 1
 928 0016 B442     		cmp	r4, r6
 929 0018 F9D3     		bcc	.L66
 216:main.c        ****     }
 217:main.c        ****     data[i] = '\0';
 930              		.loc 1 217 0 is_stmt 1
 931 001a 0023     		movs	r3, #0
 932 001c 2B55     		strb	r3, [r5, r4]
 933 001e 70BD     		pop	{r4, r5, r6, pc}
 934              		.cfi_endproc
 935              	.LFE75:
 936              		.size	getData, .-getData
 937              		.global	__aeabi_dmul
 938              		.section	.text.main,"ax",%progbits
 939              		.align	2
 940              		.global	main
 941              		.thumb
 942              		.thumb_func
 943              		.type	main, %function
 944              	main:
 945              	.LFB76:
 218:main.c        **** }
 219:main.c        **** 
 220:main.c        **** 
 221:main.c        **** int main(void)
 222:main.c        **** {
 946              		.loc 1 222 0
 947              		.cfi_startproc
 948              		@ args = 0, pretend = 0, frame = 296
 949              		@ frame_needed = 0, uses_anonymous_args = 0
 950 0000 D0B5     		push	{r4, r6, r7, lr}
 951              		.cfi_def_cfa_offset 16
 952              		.cfi_offset 4, -16
 953              		.cfi_offset 6, -12
 954              		.cfi_offset 7, -8
 955              		.cfi_offset 14, -4
 956 0002 CCB0     		sub	sp, sp, #304
 957              		.cfi_def_cfa_offset 320
 223:main.c        ****     CyGlobalIntEnable; /* Enable global interrupts. */
 958              		.loc 1 223 0
 959              		.syntax unified
 960              	@ 223 "main.c" 1
 961 0004 62B6     		CPSIE   i
 962              	@ 0 "" 2
 224:main.c        ****     UART_1_Start();
 963              		.loc 1 224 0
 964              		.thumb
 965              		.syntax unified
 966 0006 FFF7FEFF 		bl	UART_1_Start
 967              	.LVL119:
 225:main.c        ****     UART_2_Start();
 968              		.loc 1 225 0
 969 000a FFF7FEFF 		bl	UART_2_Start
 970              	.LVL120:
ARM GAS  C:\Users\Nulan\AppData\Local\Temp\ccfOIdP4.s 			page 22


 226:main.c        ****     GlobalClock_Start();
 971              		.loc 1 226 0
 972 000e FFF7FEFF 		bl	GlobalClock_Start
 973              	.LVL121:
 227:main.c        ****     /* Place your initialization/startup code here (e.g. MyInst_Start()) */
 228:main.c        ****     PID pid1, pid2;
 229:main.c        ****     FeedForward ff1, ff2;
 230:main.c        ****     motionParams motion_parameters;
 231:main.c        **** 
 232:main.c        ****     startMotorSystem(&pid1, &pid2, &ff1, &ff2);
 974              		.loc 1 232 0
 975 0012 2CAB     		add	r3, sp, #176
 976 0014 31AA     		add	r2, sp, #196
 977 0016 36A9     		add	r1, sp, #216
 978 0018 41A8     		add	r0, sp, #260
 979 001a FFF7FEFF 		bl	startMotorSystem
 980              	.LVL122:
 233:main.c        ****     
 234:main.c        ****     int32 counter1 = QuadDec_1_GetCounter();
 981              		.loc 1 234 0
 982 001e FFF7FEFF 		bl	QuadDec_1_GetCounter
 983              	.LVL123:
 235:main.c        ****     int32 counter2 = QuadDec_2_GetCounter();
 984              		.loc 1 235 0
 985 0022 FFF7FEFF 		bl	QuadDec_2_GetCounter
 986              	.LVL124:
 987              	.L72:
 988              	.LBB2:
 236:main.c        ****     char transmit_str[50];
 237:main.c        ****     char rx_data[50];
 238:main.c        ****     int i;
 239:main.c        ****     char data_string[20];
 240:main.c        ****     for(;;)
 241:main.c        ****     {
 242:main.c        ****         i = UART_2_ReadRxStatus();
 989              		.loc 1 242 0
 990 0026 FFF7FEFF 		bl	UART_2_ReadRxStatus
 991              	.LVL125:
 243:main.c        ****         size_t data_size = (size_t)UART_2_GetRxBufferSize();
 992              		.loc 1 243 0
 993 002a FFF7FEFF 		bl	UART_2_GetRxBufferSize
 994              	.LVL126:
 244:main.c        ****         if (UART_2_GetRxBufferSize() > 0)
 995              		.loc 1 244 0
 996 002e FFF7FEFF 		bl	UART_2_GetRxBufferSize
 997              	.LVL127:
 998 0032 0028     		cmp	r0, #0
 999 0034 45D0     		beq	.L69
 245:main.c        ****         {
 246:main.c        ****             getData(rx_data);
 1000              		.loc 1 246 0
 1001 0036 07A8     		add	r0, sp, #28
 1002 0038 FFF7FEFF 		bl	getData
 1003              	.LVL128:
 247:main.c        ****             sprintf(transmit_str, "Data Recieved: %s\n", rx_data);
 1004              		.loc 1 247 0
 1005 003c 07AA     		add	r2, sp, #28
ARM GAS  C:\Users\Nulan\AppData\Local\Temp\ccfOIdP4.s 			page 23


 1006 003e 2749     		ldr	r1, .L74
 1007 0040 14A8     		add	r0, sp, #80
 1008 0042 FFF7FEFF 		bl	sprintf
 1009              	.LVL129:
 248:main.c        ****             UART_2_PutString(transmit_str);
 1010              		.loc 1 248 0
 1011 0046 14A8     		add	r0, sp, #80
 1012 0048 FFF7FEFF 		bl	UART_2_PutString
 1013              	.LVL130:
 1014              	.LBB3:
 249:main.c        ****             for (int i = 0 ; rx_data[i] != '\0' ; i++){
 1015              		.loc 1 249 0
 1016 004c 0023     		movs	r3, #0
 1017 004e 05E0     		b	.L70
 1018              	.LVL131:
 1019              	.L71:
 250:main.c        ****                 data_string[i] = rx_data[i + 1];
 1020              		.loc 1 250 0 discriminator 3
 1021 0050 5A1C     		adds	r2, r3, #1
 1022 0052 07A9     		add	r1, sp, #28
 1023 0054 885C     		ldrb	r0, [r1, r2]	@ zero_extendqisi2
 1024 0056 02A9     		add	r1, sp, #8
 1025 0058 C854     		strb	r0, [r1, r3]
 1026              	.LVL132:
 249:main.c        ****             for (int i = 0 ; rx_data[i] != '\0' ; i++){
 1027              		.loc 1 249 0 discriminator 3
 1028 005a 1346     		mov	r3, r2
 1029              	.LVL133:
 1030              	.L70:
 249:main.c        ****             for (int i = 0 ; rx_data[i] != '\0' ; i++){
 1031              		.loc 1 249 0 is_stmt 0 discriminator 1
 1032 005c 07AA     		add	r2, sp, #28
 1033 005e D25C     		ldrb	r2, [r2, r3]	@ zero_extendqisi2
 1034 0060 002A     		cmp	r2, #0
 1035 0062 F5D1     		bne	.L71
 1036              	.LBE3:
 251:main.c        ****             }
 252:main.c        ****             sprintf(transmit_str, "Value Recieved: %.2f\n", atof(data_string));
 1037              		.loc 1 252 0 is_stmt 1
 1038 0064 02A8     		add	r0, sp, #8
 1039 0066 FFF7FEFF 		bl	atof
 1040              	.LVL134:
 1041 006a 0246     		mov	r2, r0
 1042 006c 0B46     		mov	r3, r1
 1043 006e 1C49     		ldr	r1, .L74+4
 1044 0070 14A8     		add	r0, sp, #80
 1045 0072 FFF7FEFF 		bl	sprintf
 1046              	.LVL135:
 253:main.c        ****             UART_2_PutString(transmit_str);
 1047              		.loc 1 253 0
 1048 0076 14A8     		add	r0, sp, #80
 1049 0078 FFF7FEFF 		bl	UART_2_PutString
 1050              	.LVL136:
 254:main.c        ****             trajectory_plan(atof(data_string) * 4, atof(data_string) * 4, &ff1, &ff2, &pid1, &pid2)
 1051              		.loc 1 254 0
 1052 007c 02A8     		add	r0, sp, #8
 1053 007e FFF7FEFF 		bl	atof
ARM GAS  C:\Users\Nulan\AppData\Local\Temp\ccfOIdP4.s 			page 24


 1054              	.LVL137:
 1055 0082 0022     		movs	r2, #0
 1056 0084 174B     		ldr	r3, .L74+8
 1057 0086 FFF7FEFF 		bl	__aeabi_dmul
 1058              	.LVL138:
 1059 008a 0646     		mov	r6, r0
 1060 008c 0F46     		mov	r7, r1
 1061 008e 02A8     		add	r0, sp, #8
 1062 0090 FFF7FEFF 		bl	atof
 1063              	.LVL139:
 1064 0094 0022     		movs	r2, #0
 1065 0096 134B     		ldr	r3, .L74+8
 1066 0098 FFF7FEFF 		bl	__aeabi_dmul
 1067              	.LVL140:
 1068 009c FFF7FEFF 		bl	__aeabi_d2f
 1069              	.LVL141:
 1070 00a0 0446     		mov	r4, r0
 1071 00a2 3046     		mov	r0, r6
 1072 00a4 3946     		mov	r1, r7
 1073 00a6 FFF7FEFF 		bl	__aeabi_d2f
 1074              	.LVL142:
 1075 00aa 36AB     		add	r3, sp, #216
 1076 00ac 0193     		str	r3, [sp, #4]
 1077 00ae 41AB     		add	r3, sp, #260
 1078 00b0 0093     		str	r3, [sp]
 1079 00b2 2CAB     		add	r3, sp, #176
 1080 00b4 31AA     		add	r2, sp, #196
 1081 00b6 2146     		mov	r1, r4
 1082 00b8 FFF7FEFF 		bl	trajectory_plan
 1083              	.LVL143:
 255:main.c        ****             setupFeedForwardController(&motion_parameters);        
 1084              		.loc 1 255 0
 1085 00bc 21A8     		add	r0, sp, #132
 1086 00be FFF7FEFF 		bl	setupFeedForwardController
 1087              	.LVL144:
 1088              	.L69:
 256:main.c        ****             // For testing only, reset the quad decoders
 257:main.c        ****         }
 258:main.c        ****         feedForwardTrajectory(&motion_parameters, &ff1, &ff2, &pid1, &pid2);
 1089              		.loc 1 258 0
 1090 00c2 36AB     		add	r3, sp, #216
 1091 00c4 0093     		str	r3, [sp]
 1092 00c6 41AB     		add	r3, sp, #260
 1093 00c8 2CAA     		add	r2, sp, #176
 1094 00ca 31A9     		add	r1, sp, #196
 1095 00cc 21A8     		add	r0, sp, #132
 1096 00ce FFF7FEFF 		bl	feedForwardTrajectory
 1097              	.LVL145:
 259:main.c        ****         /* Place your application code here. */
 260:main.c        ****         CyDelay(100);
 1098              		.loc 1 260 0
 1099 00d2 6420     		movs	r0, #100
 1100 00d4 FFF7FEFF 		bl	CyDelay
 1101              	.LVL146:
 1102              	.LBE2:
 261:main.c        ****     }
 1103              		.loc 1 261 0
ARM GAS  C:\Users\Nulan\AppData\Local\Temp\ccfOIdP4.s 			page 25


 1104 00d8 A5E7     		b	.L72
 1105              	.L75:
 1106 00da 00BF     		.align	2
 1107              	.L74:
 1108 00dc 00000000 		.word	.LC0
 1109 00e0 14000000 		.word	.LC1
 1110 00e4 00001040 		.word	1074790400
 1111              		.cfi_endproc
 1112              	.LFE76:
 1113              		.size	main, .-main
 1114              		.global	control_period
 1115              		.global	Ki
 1116              		.global	Kd
 1117              		.global	Kp
 1118              		.global	K_acceleration
 1119              		.global	K_velocity
 1120              		.global	bias_voltage
 1121              		.global	accel_max
 1122              		.global	velocity_max
 1123              		.global	Voltage_max
 1124              		.data
 1125              		.align	2
 1126              		.set	.LANCHOR0,. + 0
 1127              		.type	accel_max, %object
 1128              		.size	accel_max, 4
 1129              	accel_max:
 1130 0000 0060EA47 		.word	1206542336
 1131              		.type	velocity_max, %object
 1132              		.size	velocity_max, 4
 1133              	velocity_max:
 1134 0004 00C07346 		.word	1181990912
 1135              		.type	control_period, %object
 1136              		.size	control_period, 4
 1137              	control_period:
 1138 0008 6F12033B 		.word	990057071
 1139              		.type	Kp, %object
 1140              		.size	Kp, 4
 1141              	Kp:
 1142 000c 41D2673D 		.word	1030214209
 1143              		.type	Ki, %object
 1144              		.size	Ki, 4
 1145              	Ki:
 1146 0010 C60AB73F 		.word	1068960454
 1147              		.type	Kd, %object
 1148              		.size	Kd, 4
 1149              	Kd:
 1150 0014 5BDACC39 		.word	969726555
 1151              		.type	bias_voltage, %object
 1152              		.size	bias_voltage, 4
 1153              	bias_voltage:
 1154 0018 0000FA44 		.word	1157234688
 1155              		.type	K_velocity, %object
 1156              		.size	K_velocity, 4
 1157              	K_velocity:
 1158 001c 4980C73F 		.word	1070039113
 1159              		.type	K_acceleration, %object
 1160              		.size	K_acceleration, 4
ARM GAS  C:\Users\Nulan\AppData\Local\Temp\ccfOIdP4.s 			page 26


 1161              	K_acceleration:
 1162 0020 650B773A 		.word	980880229
 1163              		.type	Voltage_max, %object
 1164              		.size	Voltage_max, 4
 1165              	Voltage_max:
 1166 0024 0050C346 		.word	1187205120
 1167              		.section	.rodata.str1.4,"aMS",%progbits,1
 1168              		.align	2
 1169              	.LC0:
 1170 0000 44617461 		.ascii	"Data Recieved: %s\012\000"
 1170      20526563 
 1170      69657665 
 1170      643A2025 
 1170      730A00
 1171 0013 00       		.space	1
 1172              	.LC1:
 1173 0014 56616C75 		.ascii	"Value Recieved: %.2f\012\000"
 1173      65205265 
 1173      63696576 
 1173      65643A20 
 1173      252E3266 
 1174              		.text
 1175              	.Letext0:
 1176              		.file 2 "c:\\program files (x86)\\cypress\\psoc creator\\4.4\\psoc creator\\import\\gnu\\arm\\5.4.
 1177              		.file 3 "c:\\program files (x86)\\cypress\\psoc creator\\4.4\\psoc creator\\import\\gnu\\arm\\5.4.
 1178              		.file 4 "Generated_Source\\PSoC5/cytypes.h"
 1179              		.file 5 "c:\\program files (x86)\\cypress\\psoc creator\\4.4\\psoc creator\\import\\gnu\\arm\\5.4.
 1180              		.file 6 "c:\\program files (x86)\\cypress\\psoc creator\\4.4\\psoc creator\\import\\gnu\\arm\\5.4.
 1181              		.file 7 "Generated_Source\\PSoC5/core_cm3.h"
 1182              		.file 8 "Generated_Source\\PSoC5/GlobalClock.h"
 1183              		.file 9 "c:\\program files (x86)\\cypress\\psoc creator\\4.4\\psoc creator\\import\\gnu\\arm\\5.4.
 1184              		.file 10 "Generated_Source\\PSoC5/Motor_1_IN1.h"
 1185              		.file 11 "Generated_Source\\PSoC5/Motor_1_IN2.h"
 1186              		.file 12 "Generated_Source\\PSoC5/Motor_1_PWM.h"
 1187              		.file 13 "Generated_Source\\PSoC5/Motor_2_IN1.h"
 1188              		.file 14 "Generated_Source\\PSoC5/Motor_2_IN2.h"
 1189              		.file 15 "Generated_Source\\PSoC5/Motor_2_PWM.h"
 1190              		.file 16 "Generated_Source\\PSoC5/QuadDec_1.h"
 1191              		.file 17 "Generated_Source\\PSoC5/QuadDec_2.h"
 1192              		.file 18 "Generated_Source\\PSoC5/UART_2.h"
 1193              		.file 19 "c:\\program files (x86)\\cypress\\psoc creator\\4.4\\psoc creator\\import\\gnu\\arm\\5.4
 1194              		.file 20 "c:\\program files (x86)\\cypress\\psoc creator\\4.4\\psoc creator\\import\\gnu\\arm\\5.4
 1195              		.file 21 "Generated_Source\\PSoC5/CyLib.h"
 1196              		.file 22 "Generated_Source\\PSoC5/UART_1.h"