ARM GAS  C:\Users\Nulan\AppData\Local\Temp\cco5SWu0.s 			page 1


   1              		.syntax unified
   2              		.cpu cortex-m3
   3              		.fpu softvfp
   4              		.eabi_attribute 20, 1
   5              		.eabi_attribute 21, 1
   6              		.eabi_attribute 23, 3
   7              		.eabi_attribute 24, 1
   8              		.eabi_attribute 25, 1
   9              		.eabi_attribute 26, 1
  10              		.eabi_attribute 30, 1
  11              		.eabi_attribute 34, 1
  12              		.eabi_attribute 18, 4
  13              		.thumb
  14              		.syntax unified
  15              		.file	"main.c"
  16              		.text
  17              	.Ltext0:
  18              		.cfi_sections	.debug_frame
  19              		.section	.text.motorWrite,"ax",%progbits
  20              		.align	2
  21              		.global	motorWrite
  22              		.thumb
  23              		.thumb_func
  24              		.type	motorWrite, %function
  25              	motorWrite:
  26              	.LFB64:
  27              		.file 1 "main.c"
   1:main.c        **** /* ========================================
   2:main.c        ****  *
   3:main.c        ****  * Copyright YOUR COMPANY, THE YEAR
   4:main.c        ****  * All Rights Reserved
   5:main.c        ****  * UNPUBLISHED, LICENSED SOFTWARE.
   6:main.c        ****  *
   7:main.c        ****  * CONFIDENTIAL AND PROPRIETARY INFORMATION
   8:main.c        ****  * WHICH IS THE PROPERTY OF your company.
   9:main.c        ****  *
  10:main.c        ****  * ========================================
  11:main.c        **** */
  12:main.c        **** #include "project.h"
  13:main.c        **** #include <stdio.h>
  14:main.c        **** #include <math.h>
  15:main.c        **** #include <stdlib.h>
  16:main.c        **** 
  17:main.c        **** #define MIN_PWM 3750
  18:main.c        **** 
  19:main.c        **** int counter = 0;
  20:main.c        **** char transmit_str[20];
  21:main.c        **** 
  22:main.c        **** /* Testing config for the motor:
  23:main.c        ****     OUT1 -> PIN5 on ribbon
  24:main.c        ****     OUT2 -> PIN6 on ribbon
  25:main.c        ****     IN1 -> 1.5 on PSOC --> MOTOR_IN_1
  26:main.c        ****     IN2 -> 1.4 on PSOC --> MOTOR_IN_2
  27:main.c        ****     PIN1 on ribbon -> 0.6 on PSOC --> PHASE_A
  28:main.c        ****     PIN2 on ribbon -> 0.7 on PSOC --> PHASE_B
  29:main.c        ****     
  30:main.c        ****     IF MOTOR_IN_1 == 1 & MOTOR_IN_2 == 0 ---> Quadrature Counter is negative(CCW)
ARM GAS  C:\Users\Nulan\AppData\Local\Temp\cco5SWu0.s 			page 2


  31:main.c        ****     IF MOTOR_IN_1 == 1 & MOTOR_IN_2 == 0 ---> Quadrature Counter is positive(CW)
  32:main.c        **** 
  33:main.c        **** */
  34:main.c        **** 
  35:main.c        **** 
  36:main.c        **** void motorWrite(int speed)
  37:main.c        **** {
  28              		.loc 1 37 0
  29              		.cfi_startproc
  30              		@ args = 0, pretend = 0, frame = 0
  31              		@ frame_needed = 0, uses_anonymous_args = 0
  32              	.LVL0:
  33 0000 10B5     		push	{r4, lr}
  34              		.cfi_def_cfa_offset 8
  35              		.cfi_offset 4, -8
  36              		.cfi_offset 14, -4
  37 0002 0446     		mov	r4, r0
  38:main.c        ****     // For reference (condition) ? value if condition is true : value if condition is false
  39:main.c        ****     Motor_IN_1_Write( (speed < 0) ? 1 : 0); // if speed is negative ie we need to make the counter 
  38              		.loc 1 39 0
  39 0004 C00F     		lsrs	r0, r0, #31
  40              	.LVL1:
  41 0006 FFF7FEFF 		bl	Motor_IN_1_Write
  42              	.LVL2:
  40:main.c        ****     Motor_IN_2_Write( (speed > 0) ? 1 : 0); // if speed is positive ie we need to make the counter 
  43              		.loc 1 40 0
  44 000a 002C     		cmp	r4, #0
  45 000c D4BF     		ite	le
  46 000e 0020     		movle	r0, #0
  47 0010 0120     		movgt	r0, #1
  48 0012 FFF7FEFF 		bl	Motor_IN_2_Write
  49              	.LVL3:
  41:main.c        ****     speed = abs(speed);
  50              		.loc 1 41 0
  51 0016 002C     		cmp	r4, #0
  52 0018 B8BF     		it	lt
  53 001a 6442     		rsblt	r4, r4, #0
  54              	.LVL4:
  42:main.c        ****     
  43:main.c        ****     if (speed > PWM_1_ReadPeriod())
  55              		.loc 1 43 0
  56 001c FFF7FEFF 		bl	PWM_1_ReadPeriod
  57              	.LVL5:
  58 0020 8442     		cmp	r4, r0
  59 0022 02DD     		ble	.L2
  44:main.c        ****         speed =  PWM_1_ReadPeriod();
  60              		.loc 1 44 0
  61 0024 FFF7FEFF 		bl	PWM_1_ReadPeriod
  62              	.LVL6:
  63 0028 0446     		mov	r4, r0
  64              	.LVL7:
  65              	.L2:
  45:main.c        ****     if (speed < MIN_PWM)
  66              		.loc 1 45 0
  67 002a 40F6A563 		movw	r3, #3749
  68 002e 9C42     		cmp	r4, r3
  69 0030 01DC     		bgt	.L3
ARM GAS  C:\Users\Nulan\AppData\Local\Temp\cco5SWu0.s 			page 3


  46:main.c        ****         speed = MIN_PWM;
  70              		.loc 1 46 0
  71 0032 40F6A664 		movw	r4, #3750
  72              	.LVL8:
  73              	.L3:
  47:main.c        ****     
  48:main.c        ****     PWM_1_WriteCompare(speed);
  74              		.loc 1 48 0
  75 0036 A0B2     		uxth	r0, r4
  76 0038 FFF7FEFF 		bl	PWM_1_WriteCompare
  77              	.LVL9:
  78 003c 10BD     		pop	{r4, pc}
  79              		.cfi_endproc
  80              	.LFE64:
  81              		.size	motorWrite, .-motorWrite
  82 003e 00BF     		.section	.text.reachCount,"ax",%progbits
  83              		.align	2
  84              		.global	reachCount
  85              		.thumb
  86              		.thumb_func
  87              		.type	reachCount, %function
  88              	reachCount:
  89              	.LFB65:
  49:main.c        **** 
  50:main.c        **** }
  51:main.c        **** 
  52:main.c        **** void reachCount(int count)
  53:main.c        **** {
  90              		.loc 1 53 0
  91              		.cfi_startproc
  92              		@ args = 0, pretend = 0, frame = 0
  93              		@ frame_needed = 0, uses_anonymous_args = 0
  94              	.LVL10:
  95 0000 70B5     		push	{r4, r5, r6, lr}
  96              		.cfi_def_cfa_offset 16
  97              		.cfi_offset 4, -16
  98              		.cfi_offset 5, -12
  99              		.cfi_offset 6, -8
 100              		.cfi_offset 14, -4
 101 0002 0546     		mov	r5, r0
  54:main.c        ****     // Given a certain tick count, it reaches this count.
  55:main.c        ****     
  56:main.c        ****     int currentCount = QuadDec_1_GetCounter();
 102              		.loc 1 56 0
 103 0004 FFF7FEFF 		bl	QuadDec_1_GetCounter
 104              	.LVL11:
 105 0008 0446     		mov	r4, r0
 106              	.LVL12:
  57:main.c        ****     sprintf(transmit_str, "--%d\n", currentCount);
 107              		.loc 1 57 0
 108 000a 0B4E     		ldr	r6, .L10
 109 000c 0246     		mov	r2, r0
 110 000e 0B49     		ldr	r1, .L10+4
 111 0010 3046     		mov	r0, r6
 112              	.LVL13:
 113 0012 FFF7FEFF 		bl	sprintf
 114              	.LVL14:
ARM GAS  C:\Users\Nulan\AppData\Local\Temp\cco5SWu0.s 			page 4


  58:main.c        ****     UART_1_PutString(transmit_str);
 115              		.loc 1 58 0
 116 0016 3046     		mov	r0, r6
 117 0018 FFF7FEFF 		bl	UART_1_PutString
 118              	.LVL15:
  59:main.c        ****     motorWrite(0); // Stop the motor
 119              		.loc 1 59 0
 120 001c 0020     		movs	r0, #0
 121 001e FFF7FEFF 		bl	motorWrite
 122              	.LVL16:
  60:main.c        ****     while (currentCount != count){
 123              		.loc 1 60 0
 124 0022 05E0     		b	.L7
 125              	.L8:
  61:main.c        ****         motorWrite( count - currentCount );
 126              		.loc 1 61 0
 127 0024 281B     		subs	r0, r5, r4
 128 0026 FFF7FEFF 		bl	motorWrite
 129              	.LVL17:
  62:main.c        ****         currentCount = QuadDec_1_GetCounter();
 130              		.loc 1 62 0
 131 002a FFF7FEFF 		bl	QuadDec_1_GetCounter
 132              	.LVL18:
 133 002e 0446     		mov	r4, r0
 134              	.LVL19:
 135              	.L7:
  60:main.c        ****     while (currentCount != count){
 136              		.loc 1 60 0
 137 0030 AC42     		cmp	r4, r5
 138 0032 F7D1     		bne	.L8
  63:main.c        ****         
  64:main.c        ****     }
  65:main.c        **** }
 139              		.loc 1 65 0
 140 0034 70BD     		pop	{r4, r5, r6, pc}
 141              	.LVL20:
 142              	.L11:
 143 0036 00BF     		.align	2
 144              	.L10:
 145 0038 00000000 		.word	transmit_str
 146 003c 00000000 		.word	.LC0
 147              		.cfi_endproc
 148              	.LFE65:
 149              		.size	reachCount, .-reachCount
 150              		.global	__aeabi_i2d
 151              		.section	.text.main,"ax",%progbits
 152              		.align	2
 153              		.global	main
 154              		.thumb
 155              		.thumb_func
 156              		.type	main, %function
 157              	main:
 158              	.LFB66:
  66:main.c        **** 
  67:main.c        **** int main(void)
  68:main.c        **** {
 159              		.loc 1 68 0
ARM GAS  C:\Users\Nulan\AppData\Local\Temp\cco5SWu0.s 			page 5


 160              		.cfi_startproc
 161              		@ args = 0, pretend = 0, frame = 0
 162              		@ frame_needed = 1, uses_anonymous_args = 0
 163 0000 2DE9F041 		push	{r4, r5, r6, r7, r8, lr}
 164              		.cfi_def_cfa_offset 24
 165              		.cfi_offset 4, -24
 166              		.cfi_offset 5, -20
 167              		.cfi_offset 6, -16
 168              		.cfi_offset 7, -12
 169              		.cfi_offset 8, -8
 170              		.cfi_offset 14, -4
 171 0004 00AF     		add	r7, sp, #0
 172              		.cfi_def_cfa_register 7
  69:main.c        ****     CyGlobalIntEnable; /* Enable global interrupts. */
 173              		.loc 1 69 0
 174              		.syntax unified
 175              	@ 69 "main.c" 1
 176 0006 62B6     		CPSIE   i
 177              	@ 0 "" 2
  70:main.c        **** 
  71:main.c        ****     /* Place your initialization/startup code here (e.g. MyInst_Start()) */
  72:main.c        ****     PWM_1_Start();
 178              		.loc 1 72 0
 179              		.thumb
 180              		.syntax unified
 181 0008 FFF7FEFF 		bl	PWM_1_Start
 182              	.LVL21:
  73:main.c        ****     UART_1_Start();
 183              		.loc 1 73 0
 184 000c FFF7FEFF 		bl	UART_1_Start
 185              	.LVL22:
  74:main.c        ****     QuadDec_1_Start();
 186              		.loc 1 74 0
 187 0010 FFF7FEFF 		bl	QuadDec_1_Start
 188              	.LVL23:
  75:main.c        ****     PWM_1_WriteCompare(0);
 189              		.loc 1 75 0
 190 0014 0020     		movs	r0, #0
 191 0016 FFF7FEFF 		bl	PWM_1_WriteCompare
 192              	.LVL24:
  76:main.c        ****     Motor_IN_1_Write(0);
 193              		.loc 1 76 0
 194 001a 0020     		movs	r0, #0
 195 001c FFF7FEFF 		bl	Motor_IN_1_Write
 196              	.LVL25:
  77:main.c        ****     Motor_IN_2_Write(1);
 197              		.loc 1 77 0
 198 0020 0120     		movs	r0, #1
 199 0022 FFF7FEFF 		bl	Motor_IN_2_Write
 200              	.LVL26:
  78:main.c        ****     int run = 1;
  79:main.c        ****     double speed = 0;
  80:main.c        ****     int prevcounter = 0;
  81:main.c        ****     int readings = 8000;
  82:main.c        ****     double velocities[readings];
 201              		.loc 1 82 0
 202 0026 ADF57A4D 		sub	sp, sp, #64000
ARM GAS  C:\Users\Nulan\AppData\Local\Temp\cco5SWu0.s 			page 6


 203 002a 82B0     		sub	sp, sp, #8
 204 002c 6E46     		mov	r6, sp
 205              	.LVL27:
  83:main.c        ****     int i = 0;
  84:main.c        ****     int temp = 0;
  85:main.c        ****     int delay = 2;
  86:main.c        ****     CyDelay(1000);
 206              		.loc 1 86 0
 207 002e 4FF47A70 		mov	r0, #1000
 208 0032 FFF7FEFF 		bl	CyDelay
 209              	.LVL28:
 210              	.LBB2:
  87:main.c        ****     
  88:main.c        ****     for (int j = 25000 ; j <= 25000 ; j = j + 500)
 211              		.loc 1 88 0
 212 0036 46F2A818 		movw	r8, #25000
 213 003a 2AE0     		b	.L13
 214              	.LVL29:
 215              	.L18:
  89:main.c        ****     {
  90:main.c        ****         speed = 0;
  91:main.c        ****         PWM_1_WriteCompare(j);
 216              		.loc 1 91 0
 217 003c 1FFA88F0 		uxth	r0, r8
 218 0040 FFF7FEFF 		bl	PWM_1_WriteCompare
 219              	.LVL30:
 220              	.LBB3:
  92:main.c        **** 	    for (int i = 0 ; i < readings ; i++){
 221              		.loc 1 92 0
 222 0044 0024     		movs	r4, #0
 223 0046 0AE0     		b	.L14
 224              	.LVL31:
 225              	.L15:
  93:main.c        **** 		    counter = QuadDec_1_GetCounter();
 226              		.loc 1 93 0 discriminator 3
 227 0048 FFF7FEFF 		bl	QuadDec_1_GetCounter
 228              	.LVL32:
 229 004c 154B     		ldr	r3, .L21
 230 004e 1860     		str	r0, [r3]
  94:main.c        ****             velocities[i] = (double) (counter);
 231              		.loc 1 94 0 discriminator 3
 232 0050 FFF7FEFF 		bl	__aeabi_i2d
 233              	.LVL33:
 234 0054 06EBC403 		add	r3, r6, r4, lsl #3
 235 0058 C3E90001 		strd	r0, [r3]
 236              	.LVL34:
  92:main.c        **** 	    for (int i = 0 ; i < readings ; i++){
 237              		.loc 1 92 0 discriminator 3
 238 005c 0134     		adds	r4, r4, #1
 239              	.LVL35:
 240              	.L14:
  92:main.c        **** 	    for (int i = 0 ; i < readings ; i++){
 241              		.loc 1 92 0 is_stmt 0 discriminator 1
 242 005e B4F5FA5F 		cmp	r4, #8000
 243 0062 F1DB     		blt	.L15
 244 0064 0024     		movs	r4, #0
 245              	.LVL36:
ARM GAS  C:\Users\Nulan\AppData\Local\Temp\cco5SWu0.s 			page 7


 246 0066 0FE0     		b	.L16
 247              	.LVL37:
 248              	.L17:
 249              	.LBE3:
 250              	.LBB4:
  95:main.c        **** 		    //CyDelay(delay);
  96:main.c        **** 		    prevcounter = counter;
  97:main.c        **** 	    }
  98:main.c        ****         for (int i = 0 ; i < readings ; i++){
  99:main.c        ****             sprintf(transmit_str, "%.2f\n",  velocities[i]);
 251              		.loc 1 99 0 is_stmt 1 discriminator 3
 252 0068 06EBC403 		add	r3, r6, r4, lsl #3
 253 006c 0E4D     		ldr	r5, .L21+4
 254 006e D3E90023 		ldrd	r2, [r3]
 255 0072 0E49     		ldr	r1, .L21+8
 256 0074 2846     		mov	r0, r5
 257 0076 FFF7FEFF 		bl	sprintf
 258              	.LVL38:
 100:main.c        ****             UART_1_PutString(transmit_str);
 259              		.loc 1 100 0 discriminator 3
 260 007a 2846     		mov	r0, r5
 261 007c FFF7FEFF 		bl	UART_1_PutString
 262              	.LVL39:
 101:main.c        ****             CyDelay(1);
 263              		.loc 1 101 0 discriminator 3
 264 0080 0120     		movs	r0, #1
 265 0082 FFF7FEFF 		bl	CyDelay
 266              	.LVL40:
  98:main.c        ****             sprintf(transmit_str, "%.2f\n",  velocities[i]);
 267              		.loc 1 98 0 discriminator 3
 268 0086 0134     		adds	r4, r4, #1
 269              	.LVL41:
 270              	.L16:
  98:main.c        ****             sprintf(transmit_str, "%.2f\n",  velocities[i]);
 271              		.loc 1 98 0 is_stmt 0 discriminator 1
 272 0088 B4F5FA5F 		cmp	r4, #8000
 273 008c ECDB     		blt	.L17
 274              	.LBE4:
  88:main.c        ****     {
 275              		.loc 1 88 0 is_stmt 1 discriminator 2
 276 008e 08F5FA78 		add	r8, r8, #500
 277              	.LVL42:
 278              	.L13:
  88:main.c        ****     {
 279              		.loc 1 88 0 is_stmt 0 discriminator 1
 280 0092 46F2A813 		movw	r3, #25000
 281 0096 9845     		cmp	r8, r3
 282 0098 D0DD     		ble	.L18
 283              	.LBE2:
 102:main.c        ****         }
 103:main.c        **** 
 104:main.c        ****     }
 105:main.c        ****     PWM_1_WriteCompare(0);
 284              		.loc 1 105 0 is_stmt 1
 285 009a 0020     		movs	r0, #0
 286 009c FFF7FEFF 		bl	PWM_1_WriteCompare
 287              	.LVL43:
ARM GAS  C:\Users\Nulan\AppData\Local\Temp\cco5SWu0.s 			page 8


 288              	.L19:
 289 00a0 FEE7     		b	.L19
 290              	.L22:
 291 00a2 00BF     		.align	2
 292              	.L21:
 293 00a4 00000000 		.word	.LANCHOR0
 294 00a8 00000000 		.word	transmit_str
 295 00ac 08000000 		.word	.LC1
 296              		.cfi_endproc
 297              	.LFE66:
 298              		.size	main, .-main
 299              		.comm	transmit_str,20,4
 300              		.global	counter
 301              		.section	.rodata.str1.4,"aMS",%progbits,1
 302              		.align	2
 303              	.LC0:
 304 0000 2D2D2564 		.ascii	"--%d\012\000"
 304      0A00
 305 0006 0000     		.space	2
 306              	.LC1:
 307 0008 252E3266 		.ascii	"%.2f\012\000"
 307      0A00
 308              		.bss
 309              		.align	2
 310              		.set	.LANCHOR0,. + 0
 311              		.type	counter, %object
 312              		.size	counter, 4
 313              	counter:
 314 0000 00000000 		.space	4
 315              		.text
 316              	.Letext0:
 317              		.file 2 "c:\\program files (x86)\\cypress\\psoc creator\\4.4\\psoc creator\\import\\gnu\\arm\\5.4.
 318              		.file 3 "c:\\program files (x86)\\cypress\\psoc creator\\4.4\\psoc creator\\import\\gnu\\arm\\5.4.
 319              		.file 4 "Generated_Source\\PSoC5/core_cm3.h"
 320              		.file 5 "Generated_Source\\PSoC5/Motor_IN_1.h"
 321              		.file 6 "Generated_Source\\PSoC5/Motor_IN_2.h"
 322              		.file 7 "Generated_Source\\PSoC5/PWM_1.h"
 323              		.file 8 "Generated_Source\\PSoC5/QuadDec_1.h"
 324              		.file 9 "c:\\program files (x86)\\cypress\\psoc creator\\4.4\\psoc creator\\import\\gnu\\arm\\5.4.
 325              		.file 10 "Generated_Source\\PSoC5/UART_1.h"
 326              		.file 11 "Generated_Source\\PSoC5/CyLib.h"