ARM GAS  C:\Users\ANDREW~1\AppData\Local\Temp\cc66rG64.s 			page 1


   1              		.syntax unified
   2              		.cpu cortex-m3
   3              		.fpu softvfp
   4              		.eabi_attribute 20, 1
   5              		.eabi_attribute 21, 1
   6              		.eabi_attribute 23, 3
   7              		.eabi_attribute 24, 1
   8              		.eabi_attribute 25, 1
   9              		.eabi_attribute 26, 1
  10              		.eabi_attribute 30, 1
  11              		.eabi_attribute 34, 1
  12              		.eabi_attribute 18, 4
  13              		.thumb
  14              		.syntax unified
  15              		.file	"main.c"
  16              		.text
  17              	.Ltext0:
  18              		.cfi_sections	.debug_frame
  19              		.global	__aeabi_ui2d
  20              		.global	__aeabi_ddiv
  21              		.section	.text.current_second,"ax",%progbits
  22              		.align	2
  23              		.global	current_second
  24              		.thumb
  25              		.thumb_func
  26              		.type	current_second, %function
  27              	current_second:
  28              	.LFB65:
  29              		.file 1 "main.c"
   1:main.c        **** /* ========================================
   2:main.c        ****  *
   3:main.c        ****  * Copyright YOUR COMPANY, THE YEAR
   4:main.c        ****  * All Rights Reserved
   5:main.c        ****  * UNPUBLISHED, LICENSED SOFTWARE.
   6:main.c        ****  *
   7:main.c        ****  * CONFIDENTIAL AND PROPRIETARY INFORMATION
   8:main.c        ****  * WHICH IS THE PROPERTY OF your company.
   9:main.c        ****  *
  10:main.c        ****  * ========================================
  11:main.c        **** */
  12:main.c        **** // test andrew branch
  13:main.c        **** #include "project.h"
  14:main.c        **** void print_uart(int num);
  15:main.c        **** 
  16:main.c        **** CY_ISR(ReadTimer);
  17:main.c        **** double current_second();
  18:main.c        **** 
  19:main.c        **** // Interrupt routine for displaying each sections
  20:main.c        **** int time =0;
  21:main.c        **** CY_ISR(ReadTimer) 
  22:main.c        **** {
  23:main.c        ****     time = (int)(Timer_1_ReadPeriod()-Timer_1_ReadCounter());
  24:main.c        ****     
  25:main.c        ****     print_uart(time);
  26:main.c        ****     CyDelay(5);
  27:main.c        ****     UART_1_PutString("new\n");
  28:main.c        ****     CyDelay(5);
ARM GAS  C:\Users\ANDREW~1\AppData\Local\Temp\cc66rG64.s 			page 2


  29:main.c        ****     //Timer_1_Start();
  30:main.c        ****     
  31:main.c        ****     
  32:main.c        ****     //Timer_1_Stop();
  33:main.c        ****     //CyDelay(5);
  34:main.c        ****     //Timer_1_Start();
  35:main.c        ****     
  36:main.c        ****     //Control_Reg_1_Write(1); // Reset counter to do more pulses
  37:main.c        ****     //CyDelay(5);
  38:main.c        ****     //Control_Reg_1_Write(0); // Reset counter to do more pulses
  39:main.c        ****     //CyDelay(5);
  40:main.c        ****     
  41:main.c        ****     //Timer_1_RestoreConfig();
  42:main.c        ****     //Timer_1_EnableTrigger();
  43:main.c        ****     Timer_1_Stop();
  44:main.c        ****     Timer_1_ClearFIFO();
  45:main.c        ****     Timer_1_WriteCounter(Timer_1_ReadPeriod());
  46:main.c        ****     
  47:main.c        ****     //Timer_1_Start();
  48:main.c        ****     //Timer_1_Start();
  49:main.c        **** }
  50:main.c        **** 
  51:main.c        **** int main(void)
  52:main.c        **** {
  53:main.c        ****     CyGlobalIntEnable; /* Enable global interrupts. */
  54:main.c        ****     PWM_1_Start();
  55:main.c        ****     
  56:main.c        ****     Control_Reg_1_Write(0); // Reset counter to do more pulses
  57:main.c        ****     /* Place your initialization/startup code here (e.g. MyInst_Start()) */
  58:main.c        **** 
  59:main.c        ****     // Setup Colour sensor
  60:main.c        ****     colour_S0_Write(1);
  61:main.c        ****     colour_S1_Write(1);
  62:main.c        ****     
  63:main.c        ****     colour_S2_Write(1);
  64:main.c        ****     colour_S3_Write(1);
  65:main.c        ****     
  66:main.c        ****     
  67:main.c        ****     //Timer_1_SetInterruptMode(3);
  68:main.c        ****     Timer_1_Start();
  69:main.c        ****     
  70:main.c        ****     // Setup UART
  71:main.c        ****     UART_1_Start();
  72:main.c        ****     UART_1_PutString("Start UART");
  73:main.c        ****     CyDelay(5);
  74:main.c        ****     UART_1_WriteTxData(0x20);   
  75:main.c        ****     CyDelay(5);
  76:main.c        ****     
  77:main.c        ****     isr_1_ClearPending(); 
  78:main.c        ****     isr_1_StartEx(ReadTimer);  
  79:main.c        ****     
  80:main.c        ****     
  81:main.c        ****     // Global clock timer 
  82:main.c        ****     Timer_2_SetInterruptMode(3);
  83:main.c        ****     Timer_2_Start();
  84:main.c        ****     
  85:main.c        ****     
ARM GAS  C:\Users\ANDREW~1\AppData\Local\Temp\cc66rG64.s 			page 3


  86:main.c        ****     
  87:main.c        ****     for(;;)
  88:main.c        ****     {
  89:main.c        ****     print_uart((int)current_second());
  90:main.c        ****     CyDelay(5);
  91:main.c        ****     UART_1_PutString(" start\n");
  92:main.c        ****     CyDelay(5);
  93:main.c        ****         /*for(int i=0;i<=255;i++)
  94:main.c        ****         {
  95:main.c        ****         PWM_1_WriteCompare(i);
  96:main.c        ****         CyDelay(100);
  97:main.c        ****         
  98:main.c        ****         }*/
  99:main.c        ****         //print_uart(15);
 100:main.c        ****        // time = Timer_1_ReadCounter();
 101:main.c        ****        // print_uart(time);
 102:main.c        ****     //CyDelay(5);
 103:main.c        ****     //UART_1_WriteTxData(0x20);  
 104:main.c        ****     //UART_1_PutString("\n");
 105:main.c        ****     //CyDelay(5);
 106:main.c        ****         /* Place your application code here. */
 107:main.c        ****         //LED_Write(0);
 108:main.c        ****         //CyDelay(500);
 109:main.c        ****         //LED_Write(1);
 110:main.c        ****        // CyDelay(500);
 111:main.c        ****     }
 112:main.c        **** }
 113:main.c        **** 
 114:main.c        **** double current_second()
 115:main.c        **** {
  30              		.loc 1 115 0
  31              		.cfi_startproc
  32              		@ args = 0, pretend = 0, frame = 0
  33              		@ frame_needed = 0, uses_anonymous_args = 0
  34 0000 10B5     		push	{r4, lr}
  35              		.cfi_def_cfa_offset 8
  36              		.cfi_offset 4, -8
  37              		.cfi_offset 14, -4
 116:main.c        ****     double time = (double)(Timer_2_ReadPeriod()-Timer_2_ReadCounter());
  38              		.loc 1 116 0
  39 0002 FFF7FEFF 		bl	Timer_2_ReadPeriod
  40              	.LVL0:
  41 0006 0446     		mov	r4, r0
  42 0008 FFF7FEFF 		bl	Timer_2_ReadCounter
  43              	.LVL1:
  44 000c 201A     		subs	r0, r4, r0
  45 000e FFF7FEFF 		bl	__aeabi_ui2d
  46              	.LVL2:
 117:main.c        ****     time = time/100000;
  47              		.loc 1 117 0
  48 0012 03A3     		adr	r3, .L3
  49 0014 D3E90023 		ldrd	r2, [r3]
  50 0018 FFF7FEFF 		bl	__aeabi_ddiv
  51              	.LVL3:
 118:main.c        ****     
 119:main.c        ****     return time;
 120:main.c        **** }
ARM GAS  C:\Users\ANDREW~1\AppData\Local\Temp\cc66rG64.s 			page 4


  52              		.loc 1 120 0
  53 001c 10BD     		pop	{r4, pc}
  54              	.L4:
  55 001e 00BF     		.align	3
  56              	.L3:
  57 0020 00000000 		.word	0
  58 0024 006AF840 		.word	1090021888
  59              		.cfi_endproc
  60              	.LFE65:
  61              		.size	current_second, .-current_second
  62              		.section	.text.print_uart,"ax",%progbits
  63              		.align	2
  64              		.global	print_uart
  65              		.thumb
  66              		.thumb_func
  67              		.type	print_uart, %function
  68              	print_uart:
  69              	.LFB66:
 121:main.c        **** 
 122:main.c        **** uint8 value_text[16];
 123:main.c        **** void print_uart(int num)
 124:main.c        **** { 
  70              		.loc 1 124 0
  71              		.cfi_startproc
  72              		@ args = 0, pretend = 0, frame = 0
  73              		@ frame_needed = 0, uses_anonymous_args = 0
  74              	.LVL4:
  75 0000 38B5     		push	{r3, r4, r5, lr}
  76              		.cfi_def_cfa_offset 16
  77              		.cfi_offset 3, -16
  78              		.cfi_offset 4, -12
  79              		.cfi_offset 5, -8
  80              		.cfi_offset 14, -4
  81              	.LVL5:
 125:main.c        ****     int num_digits = 0;
 126:main.c        ****     int temp = num;
  82              		.loc 1 126 0
  83 0002 0346     		mov	r3, r0
 125:main.c        ****     int num_digits = 0;
  84              		.loc 1 125 0
  85 0004 0025     		movs	r5, #0
 127:main.c        ****     
 128:main.c        ****     // Count the number of digits (optional for pre-allocation)
 129:main.c        ****     while (temp != 0) {
  86              		.loc 1 129 0
  87 0006 06E0     		b	.L6
  88              	.LVL6:
  89              	.L7:
 130:main.c        ****         temp /= 10;
  90              		.loc 1 130 0
  91 0008 154A     		ldr	r2, .L13
  92 000a 82FB0312 		smull	r1, r2, r2, r3
  93 000e DB17     		asrs	r3, r3, #31
  94              	.LVL7:
  95 0010 C3EBA203 		rsb	r3, r3, r2, asr #2
  96              	.LVL8:
 131:main.c        ****         num_digits++;
ARM GAS  C:\Users\ANDREW~1\AppData\Local\Temp\cc66rG64.s 			page 5


  97              		.loc 1 131 0
  98 0014 0135     		adds	r5, r5, #1
  99              	.LVL9:
 100              	.L6:
 129:main.c        ****         temp /= 10;
 101              		.loc 1 129 0
 102 0016 002B     		cmp	r3, #0
 103 0018 F6D1     		bne	.L7
 104              	.LBB2:
 132:main.c        ****     }
 133:main.c        **** 
 134:main.c        ****     for (int i = num_digits-1; i >= 0; --i) {
 105              		.loc 1 134 0
 106 001a 6A1E     		subs	r2, r5, #1
 107              	.LVL10:
 108 001c 0EE0     		b	.L8
 109              	.LVL11:
 110              	.L9:
 135:main.c        ****         value_text[i] = num % 10;
 111              		.loc 1 135 0 discriminator 3
 112 001e 104B     		ldr	r3, .L13
 113 0020 83FB0031 		smull	r3, r1, r3, r0
 114 0024 C317     		asrs	r3, r0, #31
 115 0026 C3EBA103 		rsb	r3, r3, r1, asr #2
 116 002a 1C46     		mov	r4, r3
 117 002c 03EB8303 		add	r3, r3, r3, lsl #2
 118 0030 5900     		lsls	r1, r3, #1
 119 0032 431A     		subs	r3, r0, r1
 120 0034 0B49     		ldr	r1, .L13+4
 121 0036 8B54     		strb	r3, [r1, r2]
 136:main.c        ****         num /= 10;
 122              		.loc 1 136 0 discriminator 3
 123 0038 2046     		mov	r0, r4
 124              	.LVL12:
 134:main.c        ****         value_text[i] = num % 10;
 125              		.loc 1 134 0 discriminator 3
 126 003a 013A     		subs	r2, r2, #1
 127              	.LVL13:
 128              	.L8:
 134:main.c        ****         value_text[i] = num % 10;
 129              		.loc 1 134 0 is_stmt 0 discriminator 1
 130 003c 002A     		cmp	r2, #0
 131 003e EEDA     		bge	.L9
 132 0040 0024     		movs	r4, #0
 133 0042 09E0     		b	.L10
 134              	.LVL14:
 135              	.L11:
 136              	.LBE2:
 137              	.LBB3:
 137:main.c        ****     }
 138:main.c        ****     
 139:main.c        ****     for (int i = 0; i < num_digits; ++i) {
 140:main.c        ****         UART_1_WriteTxData(value_text[i]+0x30); //display number
 138              		.loc 1 140 0 is_stmt 1 discriminator 3
 139 0044 074B     		ldr	r3, .L13+4
 140 0046 185D     		ldrb	r0, [r3, r4]	@ zero_extendqisi2
 141 0048 3030     		adds	r0, r0, #48
ARM GAS  C:\Users\ANDREW~1\AppData\Local\Temp\cc66rG64.s 			page 6


 142 004a C0B2     		uxtb	r0, r0
 143 004c FFF7FEFF 		bl	UART_1_WriteTxData
 144              	.LVL15:
 141:main.c        ****         CyDelay(5);
 145              		.loc 1 141 0 discriminator 3
 146 0050 0520     		movs	r0, #5
 147 0052 FFF7FEFF 		bl	CyDelay
 148              	.LVL16:
 139:main.c        ****         UART_1_WriteTxData(value_text[i]+0x30); //display number
 149              		.loc 1 139 0 discriminator 3
 150 0056 0134     		adds	r4, r4, #1
 151              	.LVL17:
 152              	.L10:
 139:main.c        ****         UART_1_WriteTxData(value_text[i]+0x30); //display number
 153              		.loc 1 139 0 is_stmt 0 discriminator 1
 154 0058 A542     		cmp	r5, r4
 155 005a F3DC     		bgt	.L11
 156              	.LBE3:
 142:main.c        ****     }
 143:main.c        ****     
 144:main.c        **** }
 157              		.loc 1 144 0 is_stmt 1
 158 005c 38BD     		pop	{r3, r4, r5, pc}
 159              	.LVL18:
 160              	.L14:
 161 005e 00BF     		.align	2
 162              	.L13:
 163 0060 67666666 		.word	1717986919
 164 0064 00000000 		.word	value_text
 165              		.cfi_endproc
 166              	.LFE66:
 167              		.size	print_uart, .-print_uart
 168              		.section	.text.ReadTimer,"ax",%progbits
 169              		.align	2
 170              		.global	ReadTimer
 171              		.thumb
 172              		.thumb_func
 173              		.type	ReadTimer, %function
 174              	ReadTimer:
 175              	.LFB63:
  22:main.c        ****     time = (int)(Timer_1_ReadPeriod()-Timer_1_ReadCounter());
 176              		.loc 1 22 0
 177              		.cfi_startproc
 178              		@ args = 0, pretend = 0, frame = 0
 179              		@ frame_needed = 0, uses_anonymous_args = 0
 180 0000 10B5     		push	{r4, lr}
 181              		.cfi_def_cfa_offset 8
 182              		.cfi_offset 4, -8
 183              		.cfi_offset 14, -4
  23:main.c        ****     
 184              		.loc 1 23 0
 185 0002 FFF7FEFF 		bl	Timer_1_ReadPeriod
 186              	.LVL19:
 187 0006 0446     		mov	r4, r0
 188 0008 FFF7FEFF 		bl	Timer_1_ReadCounter
 189              	.LVL20:
 190 000c 201A     		subs	r0, r4, r0
ARM GAS  C:\Users\ANDREW~1\AppData\Local\Temp\cc66rG64.s 			page 7


 191 000e 0B4B     		ldr	r3, .L17
 192 0010 1860     		str	r0, [r3]
  25:main.c        ****     CyDelay(5);
 193              		.loc 1 25 0
 194 0012 FFF7FEFF 		bl	print_uart
 195              	.LVL21:
  26:main.c        ****     UART_1_PutString("new\n");
 196              		.loc 1 26 0
 197 0016 0520     		movs	r0, #5
 198 0018 FFF7FEFF 		bl	CyDelay
 199              	.LVL22:
  27:main.c        ****     CyDelay(5);
 200              		.loc 1 27 0
 201 001c 0848     		ldr	r0, .L17+4
 202 001e FFF7FEFF 		bl	UART_1_PutString
 203              	.LVL23:
  28:main.c        ****     //Timer_1_Start();
 204              		.loc 1 28 0
 205 0022 0520     		movs	r0, #5
 206 0024 FFF7FEFF 		bl	CyDelay
 207              	.LVL24:
  43:main.c        ****     Timer_1_ClearFIFO();
 208              		.loc 1 43 0
 209 0028 FFF7FEFF 		bl	Timer_1_Stop
 210              	.LVL25:
  44:main.c        ****     Timer_1_WriteCounter(Timer_1_ReadPeriod());
 211              		.loc 1 44 0
 212 002c FFF7FEFF 		bl	Timer_1_ClearFIFO
 213              	.LVL26:
  45:main.c        ****     
 214              		.loc 1 45 0
 215 0030 FFF7FEFF 		bl	Timer_1_ReadPeriod
 216              	.LVL27:
 217 0034 FFF7FEFF 		bl	Timer_1_WriteCounter
 218              	.LVL28:
 219 0038 10BD     		pop	{r4, pc}
 220              	.L18:
 221 003a 00BF     		.align	2
 222              	.L17:
 223 003c 00000000 		.word	.LANCHOR0
 224 0040 00000000 		.word	.LC0
 225              		.cfi_endproc
 226              	.LFE63:
 227              		.size	ReadTimer, .-ReadTimer
 228              		.global	__aeabi_d2iz
 229              		.section	.text.main,"ax",%progbits
 230              		.align	2
 231              		.global	main
 232              		.thumb
 233              		.thumb_func
 234              		.type	main, %function
 235              	main:
 236              	.LFB64:
  52:main.c        ****     CyGlobalIntEnable; /* Enable global interrupts. */
 237              		.loc 1 52 0
 238              		.cfi_startproc
 239              		@ Volatile: function does not return.
ARM GAS  C:\Users\ANDREW~1\AppData\Local\Temp\cc66rG64.s 			page 8


 240              		@ args = 0, pretend = 0, frame = 0
 241              		@ frame_needed = 0, uses_anonymous_args = 0
 242 0000 08B5     		push	{r3, lr}
 243              		.cfi_def_cfa_offset 8
 244              		.cfi_offset 3, -8
 245              		.cfi_offset 14, -4
  53:main.c        ****     PWM_1_Start();
 246              		.loc 1 53 0
 247              		.syntax unified
 248              	@ 53 "main.c" 1
 249 0002 62B6     		CPSIE   i
 250              	@ 0 "" 2
  54:main.c        ****     
 251              		.loc 1 54 0
 252              		.thumb
 253              		.syntax unified
 254 0004 FFF7FEFF 		bl	PWM_1_Start
 255              	.LVL29:
  56:main.c        ****     /* Place your initialization/startup code here (e.g. MyInst_Start()) */
 256              		.loc 1 56 0
 257 0008 0020     		movs	r0, #0
 258 000a FFF7FEFF 		bl	Control_Reg_1_Write
 259              	.LVL30:
  60:main.c        ****     colour_S1_Write(1);
 260              		.loc 1 60 0
 261 000e 0120     		movs	r0, #1
 262 0010 FFF7FEFF 		bl	colour_S0_Write
 263              	.LVL31:
  61:main.c        ****     
 264              		.loc 1 61 0
 265 0014 0120     		movs	r0, #1
 266 0016 FFF7FEFF 		bl	colour_S1_Write
 267              	.LVL32:
  63:main.c        ****     colour_S3_Write(1);
 268              		.loc 1 63 0
 269 001a 0120     		movs	r0, #1
 270 001c FFF7FEFF 		bl	colour_S2_Write
 271              	.LVL33:
  64:main.c        ****     
 272              		.loc 1 64 0
 273 0020 0120     		movs	r0, #1
 274 0022 FFF7FEFF 		bl	colour_S3_Write
 275              	.LVL34:
  68:main.c        ****     
 276              		.loc 1 68 0
 277 0026 FFF7FEFF 		bl	Timer_1_Start
 278              	.LVL35:
  71:main.c        ****     UART_1_PutString("Start UART");
 279              		.loc 1 71 0
 280 002a FFF7FEFF 		bl	UART_1_Start
 281              	.LVL36:
  72:main.c        ****     CyDelay(5);
 282              		.loc 1 72 0
 283 002e 1348     		ldr	r0, .L22
 284 0030 FFF7FEFF 		bl	UART_1_PutString
 285              	.LVL37:
  73:main.c        ****     UART_1_WriteTxData(0x20);   
ARM GAS  C:\Users\ANDREW~1\AppData\Local\Temp\cc66rG64.s 			page 9


 286              		.loc 1 73 0
 287 0034 0520     		movs	r0, #5
 288 0036 FFF7FEFF 		bl	CyDelay
 289              	.LVL38:
  74:main.c        ****     CyDelay(5);
 290              		.loc 1 74 0
 291 003a 2020     		movs	r0, #32
 292 003c FFF7FEFF 		bl	UART_1_WriteTxData
 293              	.LVL39:
  75:main.c        ****     
 294              		.loc 1 75 0
 295 0040 0520     		movs	r0, #5
 296 0042 FFF7FEFF 		bl	CyDelay
 297              	.LVL40:
  77:main.c        ****     isr_1_StartEx(ReadTimer);  
 298              		.loc 1 77 0
 299 0046 FFF7FEFF 		bl	isr_1_ClearPending
 300              	.LVL41:
  78:main.c        ****     
 301              		.loc 1 78 0
 302 004a 0D48     		ldr	r0, .L22+4
 303 004c FFF7FEFF 		bl	isr_1_StartEx
 304              	.LVL42:
  82:main.c        ****     Timer_2_Start();
 305              		.loc 1 82 0
 306 0050 0320     		movs	r0, #3
 307 0052 FFF7FEFF 		bl	Timer_2_SetInterruptMode
 308              	.LVL43:
  83:main.c        ****     
 309              		.loc 1 83 0
 310 0056 FFF7FEFF 		bl	Timer_2_Start
 311              	.LVL44:
 312              	.L20:
  89:main.c        ****     CyDelay(5);
 313              		.loc 1 89 0 discriminator 1
 314 005a FFF7FEFF 		bl	current_second
 315              	.LVL45:
 316 005e FFF7FEFF 		bl	__aeabi_d2iz
 317              	.LVL46:
 318 0062 FFF7FEFF 		bl	print_uart
 319              	.LVL47:
  90:main.c        ****     UART_1_PutString(" start\n");
 320              		.loc 1 90 0 discriminator 1
 321 0066 0520     		movs	r0, #5
 322 0068 FFF7FEFF 		bl	CyDelay
 323              	.LVL48:
  91:main.c        ****     CyDelay(5);
 324              		.loc 1 91 0 discriminator 1
 325 006c 0548     		ldr	r0, .L22+8
 326 006e FFF7FEFF 		bl	UART_1_PutString
 327              	.LVL49:
  92:main.c        ****         /*for(int i=0;i<=255;i++)
 328              		.loc 1 92 0 discriminator 1
 329 0072 0520     		movs	r0, #5
 330 0074 FFF7FEFF 		bl	CyDelay
 331              	.LVL50:
 332 0078 EFE7     		b	.L20
ARM GAS  C:\Users\ANDREW~1\AppData\Local\Temp\cc66rG64.s 			page 10


 333              	.L23:
 334 007a 00BF     		.align	2
 335              	.L22:
 336 007c 08000000 		.word	.LC1
 337 0080 00000000 		.word	ReadTimer
 338 0084 14000000 		.word	.LC2
 339              		.cfi_endproc
 340              	.LFE64:
 341              		.size	main, .-main
 342              		.comm	value_text,16,4
 343              		.global	time
 344              		.section	.rodata.str1.4,"aMS",%progbits,1
 345              		.align	2
 346              	.LC0:
 347 0000 6E65770A 		.ascii	"new\012\000"
 347      00
 348 0005 000000   		.space	3
 349              	.LC1:
 350 0008 53746172 		.ascii	"Start UART\000"
 350      74205541 
 350      525400
 351 0013 00       		.space	1
 352              	.LC2:
 353 0014 20737461 		.ascii	" start\012\000"
 353      72740A00 
 354              		.bss
 355              		.align	2
 356              		.set	.LANCHOR0,. + 0
 357              		.type	time, %object
 358              		.size	time, 4
 359              	time:
 360 0000 00000000 		.space	4
 361              		.text
 362              	.Letext0:
 363              		.file 2 "d:\\monash_apps\\psoc creator\\4.4\\psoc creator\\import\\gnu\\arm\\5.4.1\\arm-none-eabi\
 364              		.file 3 "d:\\monash_apps\\psoc creator\\4.4\\psoc creator\\import\\gnu\\arm\\5.4.1\\arm-none-eabi\
 365              		.file 4 "Generated_Source\\PSoC5/cytypes.h"
 366              		.file 5 "Generated_Source\\PSoC5/core_cm3.h"
 367              		.file 6 "Generated_Source\\PSoC5/Timer_2.h"
 368              		.file 7 "Generated_Source\\PSoC5/UART_1.h"
 369              		.file 8 "Generated_Source\\PSoC5/CyLib.h"
 370              		.file 9 "Generated_Source\\PSoC5/Timer_1.h"
 371              		.file 10 "Generated_Source\\PSoC5/PWM_1.h"
 372              		.file 11 "Generated_Source\\PSoC5/Control_Reg_1.h"
 373              		.file 12 "Generated_Source\\PSoC5/colour_S0.h"
 374              		.file 13 "Generated_Source\\PSoC5/colour_S1.h"
 375              		.file 14 "Generated_Source\\PSoC5/colour_S2.h"
 376              		.file 15 "Generated_Source\\PSoC5/colour_S3.h"
 377              		.file 16 "Generated_Source\\PSoC5/isr_1.h"