ARM GAS  C:\Users\Nulan\AppData\Local\Temp\ccc8xLoT.s 			page 1


   1              		.syntax unified
   2              		.cpu cortex-m3
   3              		.fpu softvfp
   4              		.eabi_attribute 20, 1
   5              		.eabi_attribute 21, 1
   6              		.eabi_attribute 23, 3
   7              		.eabi_attribute 24, 1
   8              		.eabi_attribute 25, 1
   9              		.eabi_attribute 26, 1
  10              		.eabi_attribute 30, 1
  11              		.eabi_attribute 34, 1
  12              		.eabi_attribute 18, 4
  13              		.thumb
  14              		.syntax unified
  15              		.file	"main.c"
  16              		.text
  17              	.Ltext0:
  18              		.cfi_sections	.debug_frame
  19              		.section	.text.millis,"ax",%progbits
  20              		.align	2
  21              		.global	millis
  22              		.thumb
  23              		.thumb_func
  24              		.type	millis, %function
  25              	millis:
  26              	.LFB64:
  27              		.file 1 "main.c"
   1:main.c        **** /* ========================================
   2:main.c        ****  *
   3:main.c        ****  * Copyright YOUR COMPANY, THE YEAR
   4:main.c        ****  * All Rights Reserved
   5:main.c        ****  * UNPUBLISHED, LICENSED SOFTWARE.
   6:main.c        ****  *
   7:main.c        ****  * CONFIDENTIAL AND PROPRIETARY INFORMATION
   8:main.c        ****  * WHICH IS THE PROPERTY OF your company.
   9:main.c        ****  *
  10:main.c        ****  * ========================================
  11:main.c        **** */
  12:main.c        **** #include "project.h"
  13:main.c        **** #include <stdio.h>
  14:main.c        **** 
  15:main.c        **** int32 current_counter = 0;
  16:main.c        **** 
  17:main.c        **** int32 millis()
  18:main.c        **** {
  28              		.loc 1 18 0
  29              		.cfi_startproc
  30              		@ args = 0, pretend = 0, frame = 0
  31              		@ frame_needed = 0, uses_anonymous_args = 0
  32 0000 10B5     		push	{r4, lr}
  33              		.cfi_def_cfa_offset 8
  34              		.cfi_offset 4, -8
  35              		.cfi_offset 14, -4
  19:main.c        ****     return (GlobalClock_ReadPeriod() - GlobalClock_ReadCounter());   
  36              		.loc 1 19 0
  37 0002 FFF7FEFF 		bl	GlobalClock_ReadPeriod
  38              	.LVL0:
ARM GAS  C:\Users\Nulan\AppData\Local\Temp\ccc8xLoT.s 			page 2


  39 0006 0446     		mov	r4, r0
  40 0008 FFF7FEFF 		bl	GlobalClock_ReadCounter
  41              	.LVL1:
  20:main.c        **** }
  42              		.loc 1 20 0
  43 000c 201A     		subs	r0, r4, r0
  44 000e 10BD     		pop	{r4, pc}
  45              		.cfi_endproc
  46              	.LFE64:
  47              		.size	millis, .-millis
  48              		.section	.text.main,"ax",%progbits
  49              		.align	2
  50              		.global	main
  51              		.thumb
  52              		.thumb_func
  53              		.type	main, %function
  54              	main:
  55              	.LFB65:
  21:main.c        **** 
  22:main.c        **** int main(void)
  23:main.c        **** {
  56              		.loc 1 23 0
  57              		.cfi_startproc
  58              		@ args = 0, pretend = 0, frame = 56
  59              		@ frame_needed = 0, uses_anonymous_args = 0
  60 0000 00B5     		push	{lr}
  61              		.cfi_def_cfa_offset 4
  62              		.cfi_offset 14, -4
  63 0002 8FB0     		sub	sp, sp, #60
  64              		.cfi_def_cfa_offset 64
  24:main.c        ****     GlobalClock_Start();
  65              		.loc 1 24 0
  66 0004 FFF7FEFF 		bl	GlobalClock_Start
  67              	.LVL2:
  25:main.c        ****     CyGlobalIntEnable; /* Enable global interrupts. */
  68              		.loc 1 25 0
  69              		.syntax unified
  70              	@ 25 "main.c" 1
  71 0008 62B6     		CPSIE   i
  72              	@ 0 "" 2
  26:main.c        ****     UART_1_Start();
  73              		.loc 1 26 0
  74              		.thumb
  75              		.syntax unified
  76 000a FFF7FEFF 		bl	UART_1_Start
  77              	.LVL3:
  78              	.L4:
  27:main.c        ****     /* Place your initialization/startup code here (e.g. MyInst_Start()) */
  28:main.c        ****     char data[50];
  29:main.c        ****     for(;;)
  30:main.c        ****     {
  31:main.c        ****         sprintf(data, "timer:%ld\n", millis());
  79              		.loc 1 31 0 discriminator 1
  80 000e FFF7FEFF 		bl	millis
  81              	.LVL4:
  82 0012 0246     		mov	r2, r0
  83 0014 0549     		ldr	r1, .L6
ARM GAS  C:\Users\Nulan\AppData\Local\Temp\ccc8xLoT.s 			page 3


  84 0016 01A8     		add	r0, sp, #4
  85 0018 FFF7FEFF 		bl	sprintf
  86              	.LVL5:
  32:main.c        ****         UART_1_PutString(data);
  87              		.loc 1 32 0 discriminator 1
  88 001c 01A8     		add	r0, sp, #4
  89 001e FFF7FEFF 		bl	UART_1_PutString
  90              	.LVL6:
  33:main.c        ****         CyDelay(100);
  91              		.loc 1 33 0 discriminator 1
  92 0022 6420     		movs	r0, #100
  93 0024 FFF7FEFF 		bl	CyDelay
  94              	.LVL7:
  95 0028 F1E7     		b	.L4
  96              	.L7:
  97 002a 00BF     		.align	2
  98              	.L6:
  99 002c 00000000 		.word	.LC0
 100              		.cfi_endproc
 101              	.LFE65:
 102              		.size	main, .-main
 103              		.global	current_counter
 104              		.section	.rodata.str1.4,"aMS",%progbits,1
 105              		.align	2
 106              	.LC0:
 107 0000 74696D65 		.ascii	"timer:%ld\012\000"
 107      723A256C 
 107      640A00
 108              		.bss
 109              		.align	2
 110              		.type	current_counter, %object
 111              		.size	current_counter, 4
 112              	current_counter:
 113 0000 00000000 		.space	4
 114              		.text
 115              	.Letext0:
 116              		.file 2 "c:\\program files (x86)\\cypress\\psoc creator\\4.4\\psoc creator\\import\\gnu\\arm\\5.4.
 117              		.file 3 "c:\\program files (x86)\\cypress\\psoc creator\\4.4\\psoc creator\\import\\gnu\\arm\\5.4.
 118              		.file 4 "Generated_Source\\PSoC5/cytypes.h"
 119              		.file 5 "Generated_Source\\PSoC5/core_cm3.h"
 120              		.file 6 "Generated_Source\\PSoC5/GlobalClock.h"
 121              		.file 7 "Generated_Source\\PSoC5/UART_1.h"
 122              		.file 8 "c:\\program files (x86)\\cypress\\psoc creator\\4.4\\psoc creator\\import\\gnu\\arm\\5.4.
 123              		.file 9 "Generated_Source\\PSoC5/CyLib.h"