ARM GAS  C:\Users\Nulan\AppData\Local\Temp\cc0fLEea.s 			page 1


   1              		.syntax unified
   2              		.cpu cortex-m3
   3              		.fpu softvfp
   4              		.eabi_attribute 20, 1
   5              		.eabi_attribute 21, 1
   6              		.eabi_attribute 23, 3
   7              		.eabi_attribute 24, 1
   8              		.eabi_attribute 25, 1
   9              		.eabi_attribute 26, 1
  10              		.eabi_attribute 30, 1
  11              		.eabi_attribute 34, 1
  12              		.eabi_attribute 18, 4
  13              		.thumb
  14              		.syntax unified
  15              		.file	"main.c"
  16              		.text
  17              	.Ltext0:
  18              		.cfi_sections	.debug_frame
  19              		.global	__aeabi_dmul
  20              		.global	__aeabi_dadd
  21              		.global	__aeabi_d2iz
  22              		.section	.text.feedForward,"ax",%progbits
  23              		.align	2
  24              		.global	feedForward
  25              		.thumb
  26              		.thumb_func
  27              		.type	feedForward, %function
  28              	feedForward:
  29              	.LFB64:
  30              		.file 1 "main.c"
   1:main.c        **** /* ========================================
   2:main.c        ****  *
   3:main.c        ****  * Copyright YOUR COMPANY, THE YEAR
   4:main.c        ****  * All Rights Reserved
   5:main.c        ****  * UNPUBLISHED, LICENSED SOFTWARE.
   6:main.c        ****  *
   7:main.c        ****  * CONFIDENTIAL AND PROPRIETARY INFORMATION
   8:main.c        ****  * WHICH IS THE PROPERTY OF your company.
   9:main.c        ****  *
  10:main.c        ****  * ========================================
  11:main.c        **** */
  12:main.c        **** #include "project.h"
  13:main.c        **** #include <math.h>
  14:main.c        **** #include <stdlib.h>
  15:main.c        **** #include <stdio.h>
  16:main.c        **** 
  17:main.c        **** // These are constants of the motor.
  18:main.c        **** double V_max = 25000; // The maximum voltage we use.
  19:main.c        **** double v_max = 3900 * 4; //ticks per second
  20:main.c        **** double a_max = 30000 * 4; // ticks per second^2
  21:main.c        **** double min_interval = 0.004; //seconds
  22:main.c        **** double K_offset = 2000; // 2000 pwm compare
  23:main.c        **** double K_velocity = 6.23441 / 4;
  24:main.c        **** double K_acceleration = 0.0037696 / 4;
  25:main.c        **** double Kp = 0.0565969969;
  26:main.c        **** double Kd = 0.000390726;
  27:main.c        **** double Ki = 1.43001626;
ARM GAS  C:\Users\Nulan\AppData\Local\Temp\cc0fLEea.s 			page 2


  28:main.c        **** int pwm_value = 0;
  29:main.c        **** /*
  30:main.c        **** double K_velocity = V_max / v_max; // Vmax / velocity_max
  31:main.c        **** double K_acceleration = V_max / a_max;
  32:main.c        **** */
  33:main.c        **** 
  34:main.c        **** double measured_speed = 0.0;
  35:main.c        **** char printstr[50];
  36:main.c        **** 
  37:main.c        **** int feedForward(double velocity, double acceleration)
  38:main.c        **** {
  31              		.loc 1 38 0
  32              		.cfi_startproc
  33              		@ args = 0, pretend = 0, frame = 0
  34              		@ frame_needed = 0, uses_anonymous_args = 0
  35              	.LVL0:
  36 0000 2DE9D043 		push	{r4, r6, r7, r8, r9, lr}
  37              		.cfi_def_cfa_offset 24
  38              		.cfi_offset 4, -24
  39              		.cfi_offset 6, -20
  40              		.cfi_offset 7, -16
  41              		.cfi_offset 8, -12
  42              		.cfi_offset 9, -8
  43              		.cfi_offset 14, -4
  44 0004 9046     		mov	r8, r2
  45 0006 9946     		mov	r9, r3
  39:main.c        ****     
  40:main.c        ****     return (int) (K_offset + K_velocity * velocity + K_acceleration * acceleration);
  46              		.loc 1 40 0
  47 0008 0D4C     		ldr	r4, .L3
  48 000a D4E90023 		ldrd	r2, [r4]
  49              	.LVL1:
  50 000e FFF7FEFF 		bl	__aeabi_dmul
  51              	.LVL2:
  52 0012 D4E90223 		ldrd	r2, [r4, #8]
  53 0016 FFF7FEFF 		bl	__aeabi_dadd
  54              	.LVL3:
  55 001a 0646     		mov	r6, r0
  56 001c 0F46     		mov	r7, r1
  57 001e D4E90423 		ldrd	r2, [r4, #16]
  58 0022 4046     		mov	r0, r8
  59 0024 4946     		mov	r1, r9
  60 0026 FFF7FEFF 		bl	__aeabi_dmul
  61              	.LVL4:
  62 002a 0246     		mov	r2, r0
  63 002c 0B46     		mov	r3, r1
  64 002e 3046     		mov	r0, r6
  65 0030 3946     		mov	r1, r7
  66 0032 FFF7FEFF 		bl	__aeabi_dadd
  67              	.LVL5:
  68 0036 FFF7FEFF 		bl	__aeabi_d2iz
  69              	.LVL6:
  41:main.c        **** }
  70              		.loc 1 41 0
  71 003a BDE8D083 		pop	{r4, r6, r7, r8, r9, pc}
  72              	.L4:
  73 003e 00BF     		.align	2
ARM GAS  C:\Users\Nulan\AppData\Local\Temp\cc0fLEea.s 			page 3


  74              	.L3:
  75 0040 00000000 		.word	.LANCHOR0
  76              		.cfi_endproc
  77              	.LFE64:
  78              		.size	feedForward, .-feedForward
  79              		.global	__aeabi_dsub
  80              		.global	__aeabi_i2d
  81              		.section	.text.PidControl,"ax",%progbits
  82              		.align	2
  83              		.global	PidControl
  84              		.thumb
  85              		.thumb_func
  86              		.type	PidControl, %function
  87              	PidControl:
  88              	.LFB65:
  42:main.c        **** 
  43:main.c        **** 
  44:main.c        **** int error=0;
  45:main.c        **** int error_old=0;
  46:main.c        **** int cummulative_error=0;
  47:main.c        **** 
  48:main.c        **** int PidControl(double current_speed, double target_speed)
  49:main.c        **** {
  89              		.loc 1 49 0
  90              		.cfi_startproc
  91              		@ args = 0, pretend = 0, frame = 0
  92              		@ frame_needed = 0, uses_anonymous_args = 0
  93              	.LVL7:
  94 0000 2DE9F843 		push	{r3, r4, r5, r6, r7, r8, r9, lr}
  95              		.cfi_def_cfa_offset 32
  96              		.cfi_offset 3, -32
  97              		.cfi_offset 4, -28
  98              		.cfi_offset 5, -24
  99              		.cfi_offset 6, -20
 100              		.cfi_offset 7, -16
 101              		.cfi_offset 8, -12
 102              		.cfi_offset 9, -8
 103              		.cfi_offset 14, -4
 104 0004 1446     		mov	r4, r2
 105 0006 1D46     		mov	r5, r3
  50:main.c        ****     error = target_speed - current_speed;
 106              		.loc 1 50 0
 107 0008 0246     		mov	r2, r0
 108              	.LVL8:
 109 000a 0B46     		mov	r3, r1
 110 000c 2046     		mov	r0, r4
 111              	.LVL9:
 112 000e 2946     		mov	r1, r5
 113 0010 FFF7FEFF 		bl	__aeabi_dsub
 114              	.LVL10:
 115 0014 FFF7FEFF 		bl	__aeabi_d2iz
 116              	.LVL11:
 117 0018 0646     		mov	r6, r0
 118 001a 184C     		ldr	r4, .L7
 119 001c 2060     		str	r0, [r4]
  51:main.c        ****     int pid_pwm_value = Kp*error + Ki*(cummulative_error) + Kd*(error-error_old) ;
 120              		.loc 1 51 0
ARM GAS  C:\Users\Nulan\AppData\Local\Temp\cc0fLEea.s 			page 4


 121 001e 184F     		ldr	r7, .L7+4
 122 0020 FFF7FEFF 		bl	__aeabi_i2d
 123              	.LVL12:
 124 0024 D7E90623 		ldrd	r2, [r7, #24]
 125 0028 FFF7FEFF 		bl	__aeabi_dmul
 126              	.LVL13:
 127 002c 8046     		mov	r8, r0
 128 002e 8946     		mov	r9, r1
 129 0030 6568     		ldr	r5, [r4, #4]
 130 0032 2846     		mov	r0, r5
 131 0034 FFF7FEFF 		bl	__aeabi_i2d
 132              	.LVL14:
 133 0038 D7E90823 		ldrd	r2, [r7, #32]
 134 003c FFF7FEFF 		bl	__aeabi_dmul
 135              	.LVL15:
 136 0040 0246     		mov	r2, r0
 137 0042 0B46     		mov	r3, r1
 138 0044 4046     		mov	r0, r8
 139 0046 4946     		mov	r1, r9
 140 0048 FFF7FEFF 		bl	__aeabi_dadd
 141              	.LVL16:
 142 004c 8046     		mov	r8, r0
 143 004e 8946     		mov	r9, r1
 144 0050 A068     		ldr	r0, [r4, #8]
 145 0052 301A     		subs	r0, r6, r0
 146 0054 FFF7FEFF 		bl	__aeabi_i2d
 147              	.LVL17:
 148 0058 D7E90A23 		ldrd	r2, [r7, #40]
 149 005c FFF7FEFF 		bl	__aeabi_dmul
 150              	.LVL18:
 151 0060 0246     		mov	r2, r0
 152 0062 0B46     		mov	r3, r1
 153 0064 4046     		mov	r0, r8
 154 0066 4946     		mov	r1, r9
 155 0068 FFF7FEFF 		bl	__aeabi_dadd
 156              	.LVL19:
 157 006c FFF7FEFF 		bl	__aeabi_d2iz
 158              	.LVL20:
  52:main.c        ****     error_old = error;
 159              		.loc 1 52 0
 160 0070 A660     		str	r6, [r4, #8]
  53:main.c        ****     cummulative_error += error;
 161              		.loc 1 53 0
 162 0072 3544     		add	r5, r5, r6
 163 0074 6560     		str	r5, [r4, #4]
  54:main.c        ****     
  55:main.c        ****     return pid_pwm_value;
  56:main.c        **** }
 164              		.loc 1 56 0
 165 0076 BDE8F883 		pop	{r3, r4, r5, r6, r7, r8, r9, pc}
 166              	.L8:
 167 007a 00BF     		.align	2
 168              	.L7:
 169 007c 00000000 		.word	.LANCHOR1
 170 0080 00000000 		.word	.LANCHOR0
 171              		.cfi_endproc
 172              	.LFE65:
ARM GAS  C:\Users\Nulan\AppData\Local\Temp\cc0fLEea.s 			page 5


 173              		.size	PidControl, .-PidControl
 174              		.section	.text.WritePWM,"ax",%progbits
 175              		.align	2
 176              		.global	WritePWM
 177              		.thumb
 178              		.thumb_func
 179              		.type	WritePWM, %function
 180              	WritePWM:
 181              	.LFB66:
  57:main.c        **** 
  58:main.c        **** void WritePWM(double velocity, double acceleration)
  59:main.c        **** {
 182              		.loc 1 59 0
 183              		.cfi_startproc
 184              		@ args = 0, pretend = 0, frame = 0
 185              		@ frame_needed = 0, uses_anonymous_args = 0
 186              	.LVL21:
 187 0000 F8B5     		push	{r3, r4, r5, r6, r7, lr}
 188              		.cfi_def_cfa_offset 24
 189              		.cfi_offset 3, -24
 190              		.cfi_offset 4, -20
 191              		.cfi_offset 5, -16
 192              		.cfi_offset 6, -12
 193              		.cfi_offset 7, -8
 194              		.cfi_offset 14, -4
 195 0002 0646     		mov	r6, r0
 196 0004 0F46     		mov	r7, r1
  60:main.c        ****     // Uses the V = K_offs + K_v * velocity + K_a * acceleration to convert the velocity and accele
  61:main.c        ****     // to a voltage requirement and transmit to the motor.
  62:main.c        ****     //data = PWM_1_ReadPeriod();
  63:main.c        ****     //sprintf(printstr, "%d\n", data);
  64:main.c        ****     // This one combines both the feed forward and the feedback control part.
  65:main.c        ****     // u = velocity, error = 
  66:main.c        ****     
  67:main.c        ****     pwm_value = feedForward(velocity, acceleration) + PidControl(measured_speed, velocity);
 197              		.loc 1 67 0
 198 0006 FFF7FEFF 		bl	feedForward
 199              	.LVL22:
 200 000a 0546     		mov	r5, r0
 201 000c 0D4C     		ldr	r4, .L11
 202 000e 3246     		mov	r2, r6
 203 0010 3B46     		mov	r3, r7
 204 0012 D4E90401 		ldrd	r0, [r4, #16]
 205 0016 FFF7FEFF 		bl	PidControl
 206              	.LVL23:
 207 001a 2844     		add	r0, r0, r5
 208 001c A061     		str	r0, [r4, #24]
  68:main.c        ****     //pwm_value = PidControl(measured_speed, velocity);
  69:main.c        ****     //pwm_value = feedForward(velocity, acceleration);
  70:main.c        ****     
  71:main.c        ****     //pwm_value = (int) (K_offset + K_velocity * velocity + K_acceleration * acceleration); 
  72:main.c        ****     //sprintf(printstr, "%d\n", pwm_value);
  73:main.c        ****     //UART_1_PutString(printstr);
  74:main.c        ****     Motor_OUT1_Write((pwm_value > 0) ? 1 : 0);
 209              		.loc 1 74 0
 210 001e 0028     		cmp	r0, #0
 211 0020 D4BF     		ite	le
ARM GAS  C:\Users\Nulan\AppData\Local\Temp\cc0fLEea.s 			page 6


 212 0022 0020     		movle	r0, #0
 213 0024 0120     		movgt	r0, #1
 214 0026 FFF7FEFF 		bl	Motor_OUT1_Write
 215              	.LVL24:
  75:main.c        ****     Motor_OUT1_Write((pwm_value < 0) ? 1 : 0);
 216              		.loc 1 75 0
 217 002a A069     		ldr	r0, [r4, #24]
 218 002c C00F     		lsrs	r0, r0, #31
 219 002e FFF7FEFF 		bl	Motor_OUT1_Write
 220              	.LVL25:
  76:main.c        ****     PWM_1_WriteCompare(abs(pwm_value));
 221              		.loc 1 76 0
 222 0032 A069     		ldr	r0, [r4, #24]
 223 0034 0028     		cmp	r0, #0
 224 0036 B8BF     		it	lt
 225 0038 4042     		rsblt	r0, r0, #0
 226 003a 80B2     		uxth	r0, r0
 227 003c FFF7FEFF 		bl	PWM_1_WriteCompare
 228              	.LVL26:
 229 0040 F8BD     		pop	{r3, r4, r5, r6, r7, pc}
 230              	.L12:
 231 0042 00BF     		.align	2
 232              	.L11:
 233 0044 00000000 		.word	.LANCHOR1
 234              		.cfi_endproc
 235              	.LFE66:
 236              		.size	WritePWM, .-WritePWM
 237              		.global	__aeabi_dcmple
 238              		.global	__aeabi_ddiv
 239              		.global	__aeabi_dcmpgt
 240              		.global	__aeabi_dcmpge
 241              		.global	__aeabi_dcmplt
 242              		.section	.text.feedForwardTrajectory,"ax",%progbits
 243              		.align	2
 244              		.global	feedForwardTrajectory
 245              		.thumb
 246              		.thumb_func
 247              		.type	feedForwardTrajectory, %function
 248              	feedForwardTrajectory:
 249              	.LFB67:
  77:main.c        **** }
  78:main.c        **** 
  79:main.c        **** 
  80:main.c        **** void feedForwardTrajectory(double s_req)
  81:main.c        **** {
 250              		.loc 1 81 0
 251              		.cfi_startproc
 252              		@ args = 0, pretend = 0, frame = 32
 253              		@ frame_needed = 0, uses_anonymous_args = 0
 254              	.LVL27:
 255 0000 2DE9F04F 		push	{r4, r5, r6, r7, r8, r9, r10, fp, lr}
 256              		.cfi_def_cfa_offset 36
 257              		.cfi_offset 4, -36
 258              		.cfi_offset 5, -32
 259              		.cfi_offset 6, -28
 260              		.cfi_offset 7, -24
 261              		.cfi_offset 8, -20
ARM GAS  C:\Users\Nulan\AppData\Local\Temp\cc0fLEea.s 			page 7


 262              		.cfi_offset 9, -16
 263              		.cfi_offset 10, -12
 264              		.cfi_offset 11, -8
 265              		.cfi_offset 14, -4
 266 0004 89B0     		sub	sp, sp, #36
 267              		.cfi_def_cfa_offset 72
 268 0006 0646     		mov	r6, r0
 269 0008 0F46     		mov	r7, r1
 270              	.LVL28:
  82:main.c        ****     double ta = 0;
  83:main.c        ****     double T = 0;
  84:main.c        ****     double tc = 0;
  85:main.c        ****     double t_cf = 0;
  86:main.c        ****     double Vm = sqrt(s_req * a_max); 
 271              		.loc 1 86 0
 272 000a 804C     		ldr	r4, .L38
 273 000c D4E90C23 		ldrd	r2, [r4, #48]
 274 0010 FFF7FEFF 		bl	__aeabi_dmul
 275              	.LVL29:
 276 0014 FFF7FEFF 		bl	sqrt
 277              	.LVL30:
 278 0018 8046     		mov	r8, r0
 279 001a 8946     		mov	r9, r1
 280 001c CDE90489 		strd	r8, [sp, #16]
 281              	.LVL31:
  87:main.c        ****     int milli_delay = (int) (min_interval * 1000);
 282              		.loc 1 87 0
 283 0020 0022     		movs	r2, #0
 284 0022 7B4B     		ldr	r3, .L38+4
 285 0024 D4E90E01 		ldrd	r0, [r4, #56]
 286 0028 FFF7FEFF 		bl	__aeabi_dmul
 287              	.LVL32:
 288 002c FFF7FEFF 		bl	__aeabi_d2iz
 289              	.LVL33:
 290 0030 0390     		str	r0, [sp, #12]
 291              	.LVL34:
  88:main.c        ****     if (Vm <= v_max){
 292              		.loc 1 88 0
 293 0032 04F14005 		add	r5, r4, #64
 294 0036 D5E90045 		ldrd	r4, [r5]
 295 003a 2246     		mov	r2, r4
 296 003c 2B46     		mov	r3, r5
 297 003e 4046     		mov	r0, r8
 298              	.LVL35:
 299 0040 4946     		mov	r1, r9
 300 0042 FFF7FEFF 		bl	__aeabi_dcmple
 301              	.LVL36:
 302 0046 98B1     		cbz	r0, .L34
  89:main.c        ****         ta = Vm / a_max;
 303              		.loc 1 89 0
 304 0048 704B     		ldr	r3, .L38
 305 004a D3E90C23 		ldrd	r2, [r3, #48]
 306 004e 4046     		mov	r0, r8
 307 0050 4946     		mov	r1, r9
 308 0052 FFF7FEFF 		bl	__aeabi_ddiv
 309              	.LVL37:
 310 0056 8246     		mov	r10, r0
ARM GAS  C:\Users\Nulan\AppData\Local\Temp\cc0fLEea.s 			page 8


 311 0058 8B46     		mov	fp, r1
 312              	.LVL38:
  90:main.c        ****         T = 2 * ta;
 313              		.loc 1 90 0
 314 005a 0246     		mov	r2, r0
 315 005c 0B46     		mov	r3, r1
 316 005e FFF7FEFF 		bl	__aeabi_dadd
 317              	.LVL39:
 318 0062 CDE90001 		strd	r0, [sp]
 319              	.LVL40:
  85:main.c        ****     double Vm = sqrt(s_req * a_max); 
 320              		.loc 1 85 0
 321 0066 0023     		movs	r3, #0
 322 0068 0024     		movs	r4, #0
 323 006a CDE90634 		strd	r3, [sp, #24]
 324 006e 28E0     		b	.L16
 325              	.LVL41:
 326              	.L34:
  91:main.c        ****     }else{
  92:main.c        ****         ta = v_max / a_max;
 327              		.loc 1 92 0
 328 0070 664B     		ldr	r3, .L38
 329 0072 D3E90C23 		ldrd	r2, [r3, #48]
 330 0076 2046     		mov	r0, r4
 331 0078 2946     		mov	r1, r5
 332 007a FFF7FEFF 		bl	__aeabi_ddiv
 333              	.LVL42:
 334 007e 8246     		mov	r10, r0
 335 0080 8B46     		mov	fp, r1
 336              	.LVL43:
  93:main.c        ****         tc = s_req / v_max - ta;
 337              		.loc 1 93 0
 338 0082 2246     		mov	r2, r4
 339 0084 2B46     		mov	r3, r5
 340 0086 3046     		mov	r0, r6
 341 0088 3946     		mov	r1, r7
 342 008a FFF7FEFF 		bl	__aeabi_ddiv
 343              	.LVL44:
 344 008e 5246     		mov	r2, r10
 345 0090 5B46     		mov	r3, fp
 346 0092 FFF7FEFF 		bl	__aeabi_dsub
 347              	.LVL45:
 348 0096 0446     		mov	r4, r0
 349 0098 0D46     		mov	r5, r1
 350              	.LVL46:
  94:main.c        ****         T = 2 * ta + tc;
 351              		.loc 1 94 0
 352 009a 5246     		mov	r2, r10
 353 009c 5B46     		mov	r3, fp
 354 009e 5046     		mov	r0, r10
 355 00a0 5946     		mov	r1, fp
 356 00a2 FFF7FEFF 		bl	__aeabi_dadd
 357              	.LVL47:
 358 00a6 0246     		mov	r2, r0
 359 00a8 0B46     		mov	r3, r1
 360 00aa 2046     		mov	r0, r4
 361 00ac 2946     		mov	r1, r5
ARM GAS  C:\Users\Nulan\AppData\Local\Temp\cc0fLEea.s 			page 9


 362 00ae FFF7FEFF 		bl	__aeabi_dadd
 363              	.LVL48:
 364 00b2 CDE90001 		strd	r0, [sp]
 365              	.LVL49:
  95:main.c        ****         t_cf = T - ta;
 366              		.loc 1 95 0
 367 00b6 5246     		mov	r2, r10
 368 00b8 5B46     		mov	r3, fp
 369 00ba FFF7FEFF 		bl	__aeabi_dsub
 370              	.LVL50:
 371 00be CDE90601 		strd	r0, [sp, #24]
 372              	.LVL51:
 373              	.L16:
 374              	.LBB2:
  96:main.c        ****     }
  97:main.c        ****     //sprintf(printstr, "%.2f\n", T / min_interval);
  98:main.c        ****     //UART_1_PutString(printstr);
  99:main.c        ****     double t = 0;
 100:main.c        ****     double i_double = 0.0; // I thinnk this would be better than casting to double each loop
 101:main.c        ****     int32 prev_val = 0;
 102:main.c        ****     int32 counter = 0;
 103:main.c        ****     //double data_to_trans[(int) (T / min_interval)][2];
 104:main.c        ****     double v = 0.0;
 105:main.c        ****     for ( int i = 0 ; i < (int) (T / min_interval) + 1; i++){
 375              		.loc 1 105 0
 376 00c2 0024     		movs	r4, #0
 377              	.LBE2:
 101:main.c        ****     int32 counter = 0;
 378              		.loc 1 101 0
 379 00c4 A046     		mov	r8, r4
 380              	.LVL52:
 381              	.LBB3:
 382              		.loc 1 105 0
 383 00c6 8CE0     		b	.L17
 384              	.LVL53:
 385              	.L27:
 106:main.c        ****         t = (double) (i * min_interval); //optimize this
 386              		.loc 1 106 0
 387 00c8 2046     		mov	r0, r4
 388 00ca FFF7FEFF 		bl	__aeabi_i2d
 389              	.LVL54:
 390 00ce 0246     		mov	r2, r0
 391 00d0 0B46     		mov	r3, r1
 392 00d2 3046     		mov	r0, r6
 393 00d4 3946     		mov	r1, r7
 394 00d6 FFF7FEFF 		bl	__aeabi_dmul
 395              	.LVL55:
 396 00da 0646     		mov	r6, r0
 397 00dc 0F46     		mov	r7, r1
 398              	.LVL56:
 107:main.c        ****         counter = QuadDec_1_GetCounter();
 399              		.loc 1 107 0
 400 00de FFF7FEFF 		bl	QuadDec_1_GetCounter
 401              	.LVL57:
 402 00e2 0546     		mov	r5, r0
 403              	.LVL58:
 108:main.c        ****         measured_speed = (double) (counter - prev_val) / min_interval; //optimize this
ARM GAS  C:\Users\Nulan\AppData\Local\Temp\cc0fLEea.s 			page 10


 404              		.loc 1 108 0
 405 00e4 C8EB0000 		rsb	r0, r8, r0
 406              	.LVL59:
 407 00e8 FFF7FEFF 		bl	__aeabi_i2d
 408              	.LVL60:
 409 00ec 474B     		ldr	r3, .L38
 410 00ee D3E90E23 		ldrd	r2, [r3, #56]
 411 00f2 FFF7FEFF 		bl	__aeabi_ddiv
 412              	.LVL61:
 413 00f6 474B     		ldr	r3, .L38+8
 414 00f8 C3E90401 		strd	r0, [r3, #16]
 109:main.c        ****         //data_to_trans[i][0] = measured_speed;
 110:main.c        ****         
 111:main.c        ****         if ( t < ta ){
 415              		.loc 1 111 0
 416 00fc 3246     		mov	r2, r6
 417 00fe 3B46     		mov	r3, r7
 418 0100 5046     		mov	r0, r10
 419 0102 5946     		mov	r1, fp
 420 0104 FFF7FEFF 		bl	__aeabi_dcmpgt
 421              	.LVL62:
 422 0108 68B1     		cbz	r0, .L35
 112:main.c        ****             //v = a_max * t;
 113:main.c        ****             WritePWM(a_max * t, a_max);
 423              		.loc 1 113 0
 424 010a 404B     		ldr	r3, .L38
 425 010c D3E90C89 		ldrd	r8, [r3, #48]
 426              	.LVL63:
 427 0110 4246     		mov	r2, r8
 428 0112 4B46     		mov	r3, r9
 429 0114 3046     		mov	r0, r6
 430 0116 3946     		mov	r1, r7
 431 0118 FFF7FEFF 		bl	__aeabi_dmul
 432              	.LVL64:
 433 011c 4246     		mov	r2, r8
 434 011e 4B46     		mov	r3, r9
 435 0120 FFF7FEFF 		bl	WritePWM
 436              	.LVL65:
 437 0124 58E0     		b	.L20
 438              	.LVL66:
 439              	.L35:
 114:main.c        ****         }
 115:main.c        ****         else if ( Vm <= v_max ){
 440              		.loc 1 115 0
 441 0126 394B     		ldr	r3, .L38
 442 0128 D3E91089 		ldrd	r8, [r3, #64]
 443              	.LVL67:
 444 012c 4246     		mov	r2, r8
 445 012e 4B46     		mov	r3, r9
 446 0130 DDE90401 		ldrd	r0, [sp, #16]
 447 0134 FFF7FEFF 		bl	__aeabi_dcmple
 448              	.LVL68:
 449 0138 C8B1     		cbz	r0, .L36
 116:main.c        ****             // There is no constant speed region
 117:main.c        ****             // So we start decelerating
 118:main.c        ****             //v = Vm - a_max * (t - ta);
 119:main.c        ****             WritePWM(Vm - a_max * (t - ta), -a_max);
ARM GAS  C:\Users\Nulan\AppData\Local\Temp\cc0fLEea.s 			page 11


 450              		.loc 1 119 0
 451 013a 5246     		mov	r2, r10
 452 013c 5B46     		mov	r3, fp
 453 013e 3046     		mov	r0, r6
 454 0140 3946     		mov	r1, r7
 455 0142 FFF7FEFF 		bl	__aeabi_dsub
 456              	.LVL69:
 457 0146 314B     		ldr	r3, .L38
 458 0148 1F6B     		ldr	r7, [r3, #48]
 459 014a 5E6B     		ldr	r6, [r3, #52]
 460              	.LVL70:
 461 014c 3A46     		mov	r2, r7
 462 014e 3346     		mov	r3, r6
 463 0150 FFF7FEFF 		bl	__aeabi_dmul
 464              	.LVL71:
 465 0154 06F10046 		add	r6, r6, #-2147483648
 466 0158 0246     		mov	r2, r0
 467 015a 0B46     		mov	r3, r1
 468 015c DDE90401 		ldrd	r0, [sp, #16]
 469 0160 FFF7FEFF 		bl	__aeabi_dsub
 470              	.LVL72:
 471 0164 3A46     		mov	r2, r7
 472 0166 3346     		mov	r3, r6
 473 0168 FFF7FEFF 		bl	WritePWM
 474              	.LVL73:
 475 016c 34E0     		b	.L20
 476              	.LVL74:
 477              	.L36:
 120:main.c        ****         }else if ( (t >= ta) && (t <= t_cf) ){
 478              		.loc 1 120 0
 479 016e 3246     		mov	r2, r6
 480 0170 3B46     		mov	r3, r7
 481 0172 5046     		mov	r0, r10
 482 0174 5946     		mov	r1, fp
 483 0176 FFF7FEFF 		bl	__aeabi_dcmple
 484              	.LVL75:
 485 017a 68B1     		cbz	r0, .L23
 486              		.loc 1 120 0 is_stmt 0 discriminator 1
 487 017c 3246     		mov	r2, r6
 488 017e 3B46     		mov	r3, r7
 489 0180 DDE90601 		ldrd	r0, [sp, #24]
 490 0184 FFF7FEFF 		bl	__aeabi_dcmpge
 491              	.LVL76:
 492 0188 30B1     		cbz	r0, .L23
 121:main.c        ****             // There is constant speed region
 122:main.c        ****             // And we are in the constant speed region
 123:main.c        ****             //v = v_max;
 124:main.c        ****             WritePWM(v_max, 0);
 493              		.loc 1 124 0 is_stmt 1
 494 018a 0022     		movs	r2, #0
 495 018c 0023     		movs	r3, #0
 496 018e 4046     		mov	r0, r8
 497 0190 4946     		mov	r1, r9
 498 0192 FFF7FEFF 		bl	WritePWM
 499              	.LVL77:
 500 0196 1FE0     		b	.L20
 501              	.L23:
ARM GAS  C:\Users\Nulan\AppData\Local\Temp\cc0fLEea.s 			page 12


 125:main.c        ****         }else if (t > t_cf){
 502              		.loc 1 125 0
 503 0198 3246     		mov	r2, r6
 504 019a 3B46     		mov	r3, r7
 505 019c DDE90601 		ldrd	r0, [sp, #24]
 506 01a0 FFF7FEFF 		bl	__aeabi_dcmplt
 507              	.LVL78:
 508 01a4 C0B1     		cbz	r0, .L20
 126:main.c        ****             // There is a constant speed region(Vm > Vmax to come here) and we are in the decelerat
 127:main.c        ****             //v = v_max - (t - t_cf) * a_max;
 128:main.c        ****             WritePWM(v_max - (t - t_cf) * a_max, -a_max);
 509              		.loc 1 128 0
 510 01a6 DDE90623 		ldrd	r2, [sp, #24]
 511 01aa 3046     		mov	r0, r6
 512 01ac 3946     		mov	r1, r7
 513 01ae FFF7FEFF 		bl	__aeabi_dsub
 514              	.LVL79:
 515 01b2 164B     		ldr	r3, .L38
 516 01b4 1F6B     		ldr	r7, [r3, #48]
 517 01b6 5E6B     		ldr	r6, [r3, #52]
 518              	.LVL80:
 519 01b8 3A46     		mov	r2, r7
 520 01ba 3346     		mov	r3, r6
 521 01bc FFF7FEFF 		bl	__aeabi_dmul
 522              	.LVL81:
 523 01c0 06F10046 		add	r6, r6, #-2147483648
 524 01c4 0246     		mov	r2, r0
 525 01c6 0B46     		mov	r3, r1
 526 01c8 4046     		mov	r0, r8
 527 01ca 4946     		mov	r1, r9
 528 01cc FFF7FEFF 		bl	__aeabi_dsub
 529              	.LVL82:
 530 01d0 3A46     		mov	r2, r7
 531 01d2 3346     		mov	r3, r6
 532 01d4 FFF7FEFF 		bl	WritePWM
 533              	.LVL83:
 534              	.L20:
 129:main.c        ****         }
 130:main.c        ****         //data_to_trans[i][1] = v;
 131:main.c        ****         prev_val = counter;
 132:main.c        ****         CyDelay(milli_delay); 
 535              		.loc 1 132 0 discriminator 2
 536 01d8 0398     		ldr	r0, [sp, #12]
 537 01da FFF7FEFF 		bl	CyDelay
 538              	.LVL84:
 105:main.c        ****         t = (double) (i * min_interval); //optimize this
 539              		.loc 1 105 0 discriminator 2
 540 01de 0134     		adds	r4, r4, #1
 541              	.LVL85:
 131:main.c        ****         CyDelay(milli_delay); 
 542              		.loc 1 131 0 discriminator 2
 543 01e0 A846     		mov	r8, r5
 544              	.LVL86:
 545              	.L17:
 105:main.c        ****         t = (double) (i * min_interval); //optimize this
 546              		.loc 1 105 0 discriminator 1
 547 01e2 0A4B     		ldr	r3, .L38
ARM GAS  C:\Users\Nulan\AppData\Local\Temp\cc0fLEea.s 			page 13


 548 01e4 D3E90E67 		ldrd	r6, [r3, #56]
 549 01e8 3246     		mov	r2, r6
 550 01ea 3B46     		mov	r3, r7
 551 01ec DDE90001 		ldrd	r0, [sp]
 552 01f0 FFF7FEFF 		bl	__aeabi_ddiv
 553              	.LVL87:
 554 01f4 FFF7FEFF 		bl	__aeabi_d2iz
 555              	.LVL88:
 556 01f8 0130     		adds	r0, r0, #1
 557 01fa 8442     		cmp	r4, r0
 558 01fc FFF664AF 		blt	.L27
 559              	.LBE3:
 133:main.c        ****     }
 134:main.c        ****     PWM_1_WriteCompare(0);
 560              		.loc 1 134 0
 561 0200 0020     		movs	r0, #0
 562 0202 FFF7FEFF 		bl	PWM_1_WriteCompare
 563              	.LVL89:
 135:main.c        **** /*    
 136:main.c        ****     for (int i = 0 ; i < (int) (T / min_interval) + 1; i++){
 137:main.c        ****         //sprintf(printstr, "%.2f,%.2f\n", data_to_trans[i][0], data_to_trans[i][1]);
 138:main.c        ****         //UART_1_PutString(printstr);
 139:main.c        ****         //CyDelay(1);
 140:main.c        ****     }
 141:main.c        **** */  
 142:main.c        **** }
 564              		.loc 1 142 0
 565 0206 09B0     		add	sp, sp, #36
 566              		.cfi_def_cfa_offset 36
 567              	.LVL90:
 568              		@ sp needed
 569 0208 BDE8F08F 		pop	{r4, r5, r6, r7, r8, r9, r10, fp, pc}
 570              	.LVL91:
 571              	.L39:
 572              		.align	2
 573              	.L38:
 574 020c 00000000 		.word	.LANCHOR0
 575 0210 00408F40 		.word	1083129856
 576 0214 00000000 		.word	.LANCHOR1
 577              		.cfi_endproc
 578              	.LFE67:
 579              		.size	feedForwardTrajectory, .-feedForwardTrajectory
 580              		.section	.text.main,"ax",%progbits
 581              		.align	2
 582              		.global	main
 583              		.thumb
 584              		.thumb_func
 585              		.type	main, %function
 586              	main:
 587              	.LFB68:
 143:main.c        **** 
 144:main.c        **** 
 145:main.c        **** 
 146:main.c        **** 
 147:main.c        **** int main(void)
 148:main.c        **** {
 588              		.loc 1 148 0
ARM GAS  C:\Users\Nulan\AppData\Local\Temp\cc0fLEea.s 			page 14


 589              		.cfi_startproc
 590              		@ args = 0, pretend = 0, frame = 24
 591              		@ frame_needed = 0, uses_anonymous_args = 0
 592 0000 10B5     		push	{r4, lr}
 593              		.cfi_def_cfa_offset 8
 594              		.cfi_offset 4, -8
 595              		.cfi_offset 14, -4
 596 0002 86B0     		sub	sp, sp, #24
 597              		.cfi_def_cfa_offset 32
 149:main.c        ****     CyGlobalIntEnable; /* Enable global interrupts. */
 598              		.loc 1 149 0
 599              		.syntax unified
 600              	@ 149 "main.c" 1
 601 0004 62B6     		CPSIE   i
 602              	@ 0 "" 2
 150:main.c        ****     QuadDec_1_Start();
 603              		.loc 1 150 0
 604              		.thumb
 605              		.syntax unified
 606 0006 FFF7FEFF 		bl	QuadDec_1_Start
 607              	.LVL92:
 151:main.c        ****     PWM_1_Start();
 608              		.loc 1 151 0
 609 000a FFF7FEFF 		bl	PWM_1_Start
 610              	.LVL93:
 152:main.c        ****     UART_1_Start();
 611              		.loc 1 152 0
 612 000e FFF7FEFF 		bl	UART_1_Start
 613              	.LVL94:
 153:main.c        ****     Motor_OUT1_Write(0);
 614              		.loc 1 153 0
 615 0012 0020     		movs	r0, #0
 616 0014 FFF7FEFF 		bl	Motor_OUT1_Write
 617              	.LVL95:
 154:main.c        ****     Motor_OUT2_Write(1);
 618              		.loc 1 154 0
 619 0018 0120     		movs	r0, #1
 620 001a FFF7FEFF 		bl	Motor_OUT2_Write
 621              	.LVL96:
 155:main.c        ****     PWM_1_WriteCompare(0);
 622              		.loc 1 155 0
 623 001e 0020     		movs	r0, #0
 624 0020 FFF7FEFF 		bl	PWM_1_WriteCompare
 625              	.LVL97:
 156:main.c        ****     QuadDec_1_SetCounter(0);
 626              		.loc 1 156 0
 627 0024 0020     		movs	r0, #0
 628 0026 FFF7FEFF 		bl	QuadDec_1_SetCounter
 629              	.LVL98:
 157:main.c        ****     /* Place your initialization/startup code here (e.g. MyInst_Start()) */
 158:main.c        ****     //////////////////////////////////////////////////////////////////////
 159:main.c        ****     // Change the Kd to include the timestep;
 160:main.c        ****     Kd = Kd * 1 / min_interval;
 630              		.loc 1 160 0
 631 002a 0D4C     		ldr	r4, .L43
 632 002c D4E90E23 		ldrd	r2, [r4, #56]
 633 0030 D4E90A01 		ldrd	r0, [r4, #40]
ARM GAS  C:\Users\Nulan\AppData\Local\Temp\cc0fLEea.s 			page 15


 634 0034 FFF7FEFF 		bl	__aeabi_ddiv
 635              	.LVL99:
 636 0038 C4E90A01 		strd	r0, [r4, #40]
 161:main.c        ****     //////////////////////////////////////////////////////////////////////
 162:main.c        ****     feedForwardTrajectory(1222.4 * 10 * 4);
 637              		.loc 1 162 0
 638 003c 0020     		movs	r0, #0
 639 003e 0949     		ldr	r1, .L43+4
 640 0040 FFF7FEFF 		bl	feedForwardTrajectory
 641              	.LVL100:
 163:main.c        ****     
 164:main.c        ****     int counter = QuadDec_1_GetCounter();
 642              		.loc 1 164 0
 643 0044 FFF7FEFF 		bl	QuadDec_1_GetCounter
 644              	.LVL101:
 165:main.c        ****     char transmit_str[20];
 166:main.c        ****     sprintf(transmit_str, "\n%d\n", counter);
 645              		.loc 1 166 0
 646 0048 0246     		mov	r2, r0
 647 004a 0749     		ldr	r1, .L43+8
 648 004c 01A8     		add	r0, sp, #4
 649              	.LVL102:
 650 004e FFF7FEFF 		bl	sprintf
 651              	.LVL103:
 167:main.c        ****     UART_1_PutString(transmit_str);
 652              		.loc 1 167 0
 653 0052 01A8     		add	r0, sp, #4
 654 0054 FFF7FEFF 		bl	UART_1_PutString
 655              	.LVL104:
 168:main.c        ****     CyDelay(100);
 656              		.loc 1 168 0
 657 0058 6420     		movs	r0, #100
 658 005a FFF7FEFF 		bl	CyDelay
 659              	.LVL105:
 660              	.L41:
 661 005e FEE7     		b	.L41
 662              	.L44:
 663              		.align	2
 664              	.L43:
 665 0060 00000000 		.word	.LANCHOR0
 666 0064 00E0E740 		.word	1088937984
 667 0068 00000000 		.word	.LC0
 668              		.cfi_endproc
 669              	.LFE68:
 670              		.size	main, .-main
 671              		.global	cummulative_error
 672              		.global	error_old
 673              		.global	error
 674              		.comm	printstr,50,4
 675              		.global	measured_speed
 676              		.global	pwm_value
 677              		.global	Ki
 678              		.global	Kd
 679              		.global	Kp
 680              		.global	K_acceleration
 681              		.global	K_velocity
 682              		.global	K_offset
ARM GAS  C:\Users\Nulan\AppData\Local\Temp\cc0fLEea.s 			page 16


 683              		.global	min_interval
 684              		.global	a_max
 685              		.global	v_max
 686              		.global	V_max
 687              		.data
 688              		.align	3
 689              		.set	.LANCHOR0,. + 0
 690              		.type	K_velocity, %object
 691              		.size	K_velocity, 8
 692              	K_velocity:
 693 0000 E36BCF2C 		.word	751791075
 694 0004 09F0F83F 		.word	1073278985
 695              		.type	K_offset, %object
 696              		.size	K_offset, 8
 697              	K_offset:
 698 0008 00000000 		.word	0
 699 000c 00409F40 		.word	1084178432
 700              		.type	K_acceleration, %object
 701              		.size	K_acceleration, 8
 702              	K_acceleration:
 703 0010 A50F0297 		.word	-1761472603
 704 0014 6CE14E3F 		.word	1062134124
 705              		.type	Kp, %object
 706              		.size	Kp, 8
 707              	Kp:
 708 0018 24817915 		.word	360284452
 709 001c 48FAAC3F 		.word	1068300872
 710              		.type	Ki, %object
 711              		.size	Ki, 8
 712              	Ki:
 713 0020 F62BD7BA 		.word	-1160303626
 714 0024 58E1F63F 		.word	1073144152
 715              		.type	Kd, %object
 716              		.size	Kd, 8
 717              	Kd:
 718 0028 6E3F4664 		.word	1682325358
 719 002c 4B9B393F 		.word	1060739915
 720              		.type	a_max, %object
 721              		.size	a_max, 8
 722              	a_max:
 723 0030 00000000 		.word	0
 724 0034 004CFD40 		.word	1090341888
 725              		.type	min_interval, %object
 726              		.size	min_interval, 8
 727              	min_interval:
 728 0038 FCA9F1D2 		.word	-755914244
 729 003c 4D62703F 		.word	1064329805
 730              		.type	v_max, %object
 731              		.size	v_max, 8
 732              	v_max:
 733 0040 00000000 		.word	0
 734 0044 0078CE40 		.word	1087272960
 735              		.type	V_max, %object
 736              		.size	V_max, 8
 737              	V_max:
 738 0048 00000000 		.word	0
 739 004c 006AD840 		.word	1087924736
ARM GAS  C:\Users\Nulan\AppData\Local\Temp\cc0fLEea.s 			page 17


 740              		.section	.rodata.str1.4,"aMS",%progbits,1
 741              		.align	2
 742              	.LC0:
 743 0000 0A25640A 		.ascii	"\012%d\012\000"
 743      00
 744              		.bss
 745              		.align	3
 746              		.set	.LANCHOR1,. + 0
 747              		.type	error, %object
 748              		.size	error, 4
 749              	error:
 750 0000 00000000 		.space	4
 751              		.type	cummulative_error, %object
 752              		.size	cummulative_error, 4
 753              	cummulative_error:
 754 0004 00000000 		.space	4
 755              		.type	error_old, %object
 756              		.size	error_old, 4
 757              	error_old:
 758 0008 00000000 		.space	4
 759 000c 00000000 		.space	4
 760              		.type	measured_speed, %object
 761              		.size	measured_speed, 8
 762              	measured_speed:
 763 0010 00000000 		.space	8
 763      00000000 
 764              		.type	pwm_value, %object
 765              		.size	pwm_value, 4
 766              	pwm_value:
 767 0018 00000000 		.space	4
 768              		.text
 769              	.Letext0:
 770              		.file 2 "c:\\program files (x86)\\cypress\\psoc creator\\4.4\\psoc creator\\import\\gnu\\arm\\5.4.
 771              		.file 3 "c:\\program files (x86)\\cypress\\psoc creator\\4.4\\psoc creator\\import\\gnu\\arm\\5.4.
 772              		.file 4 "Generated_Source\\PSoC5/cytypes.h"
 773              		.file 5 "Generated_Source\\PSoC5/core_cm3.h"
 774              		.file 6 "Generated_Source\\PSoC5/Motor_OUT1.h"
 775              		.file 7 "Generated_Source\\PSoC5/PWM_1.h"
 776              		.file 8 "Generated_Source\\PSoC5/QuadDec_1.h"
 777              		.file 9 "Generated_Source\\PSoC5/CyLib.h"
 778              		.file 10 "c:\\program files (x86)\\cypress\\psoc creator\\4.4\\psoc creator\\import\\gnu\\arm\\5.4
 779              		.file 11 "Generated_Source\\PSoC5/UART_1.h"
 780              		.file 12 "Generated_Source\\PSoC5/Motor_OUT2.h"
 781              		.file 13 "c:\\program files (x86)\\cypress\\psoc creator\\4.4\\psoc creator\\import\\gnu\\arm\\5.4