ARM GAS  C:\Users\ANDREW~1\AppData\Local\Temp\ccxNhSpD.s 			page 1


   1              		.syntax unified
   2              		.cpu cortex-m3
   3              		.fpu softvfp
   4              		.eabi_attribute 20, 1
   5              		.eabi_attribute 21, 1
   6              		.eabi_attribute 23, 3
   7              		.eabi_attribute 24, 1
   8              		.eabi_attribute 25, 1
   9              		.eabi_attribute 26, 1
  10              		.eabi_attribute 30, 1
  11              		.eabi_attribute 34, 1
  12              		.eabi_attribute 18, 4
  13              		.thumb
  14              		.syntax unified
  15              		.file	"Colour_Sensor.c"
  16              		.text
  17              	.Ltext0:
  18              		.cfi_sections	.debug_frame
  19              		.section	.text.colour_sensor_isr,"ax",%progbits
  20              		.align	2
  21              		.global	colour_sensor_isr
  22              		.thumb
  23              		.thumb_func
  24              		.type	colour_sensor_isr, %function
  25              	colour_sensor_isr:
  26              	.LFB66:
  27              		.file 1 "Colour_Sensor.c"
   1:Colour_Sensor.c **** /* ========================================
   2:Colour_Sensor.c ****  *
   3:Colour_Sensor.c ****  * Copyright YOUR COMPANY, THE YEAR
   4:Colour_Sensor.c ****  * All Rights Reserved
   5:Colour_Sensor.c ****  * UNPUBLISHED, LICENSED SOFTWARE.
   6:Colour_Sensor.c ****  *
   7:Colour_Sensor.c ****  * CONFIDENTIAL AND PROPRIETARY INFORMATION
   8:Colour_Sensor.c ****  * WHICH IS THE PROPERTY OF your company.
   9:Colour_Sensor.c ****  *
  10:Colour_Sensor.c ****  * ========================================
  11:Colour_Sensor.c **** */
  12:Colour_Sensor.c **** #include "project.h" // PSoC Creator generated header for project-specific definitions
  13:Colour_Sensor.c **** #include <stdbool.h>
  14:Colour_Sensor.c **** #include <stdio.h>
  15:Colour_Sensor.c **** 
  16:Colour_Sensor.c **** #include "Colour_Sensor.h"
  17:Colour_Sensor.c **** 
  18:Colour_Sensor.c **** 
  19:Colour_Sensor.c **** 
  20:Colour_Sensor.c **** uint32 map(uint32 x, uint32 in_min, uint32 in_max, uint32 out_min, uint32 out_max) {
  21:Colour_Sensor.c ****     // limit output to 0 or 255 when it is out of desired range
  22:Colour_Sensor.c ****     if (x <=in_min) return out_min;
  23:Colour_Sensor.c ****     else if (x >=in_max) return out_max;
  24:Colour_Sensor.c ****     
  25:Colour_Sensor.c ****     return (x - in_min) * (out_max - out_min) / (in_max - in_min) + out_min;
  26:Colour_Sensor.c **** }
  27:Colour_Sensor.c **** 
  28:Colour_Sensor.c **** 
  29:Colour_Sensor.c **** ///////////////////////////////////////////////////////////////////////////////////////////////////
  30:Colour_Sensor.c **** // Colour sensor functions
ARM GAS  C:\Users\ANDREW~1\AppData\Local\Temp\ccxNhSpD.s 			page 2


  31:Colour_Sensor.c **** void Colour_Sensor_Setup()
  32:Colour_Sensor.c **** {
  33:Colour_Sensor.c ****     // Colour sensor setup
  34:Colour_Sensor.c ****     Pulse_counter_Start();
  35:Colour_Sensor.c ****     Count7_10ms_Start();
  36:Colour_Sensor.c ****     freq_isr_ClearPending(); 
  37:Colour_Sensor.c ****     freq_isr_StartEx(colour_sensor_isr);
  38:Colour_Sensor.c **** }
  39:Colour_Sensor.c **** 
  40:Colour_Sensor.c **** 
  41:Colour_Sensor.c **** 
  42:Colour_Sensor.c **** uint32 value = 0;
  43:Colour_Sensor.c **** bool colour_sensor_ready = 0;
  44:Colour_Sensor.c **** CY_ISR(colour_sensor_isr){
  28              		.loc 1 44 0
  29              		.cfi_startproc
  30              		@ args = 0, pretend = 0, frame = 0
  31              		@ frame_needed = 0, uses_anonymous_args = 0
  32 0000 08B5     		push	{r3, lr}
  33              		.cfi_def_cfa_offset 8
  34              		.cfi_offset 3, -8
  35              		.cfi_offset 14, -4
  45:Colour_Sensor.c ****     value= Pulse_counter_ReadCounter();
  36              		.loc 1 45 0
  37 0002 FFF7FEFF 		bl	Pulse_counter_ReadCounter
  38              	.LVL0:
  39 0006 024B     		ldr	r3, .L3
  40 0008 1860     		str	r0, [r3]
  46:Colour_Sensor.c ****     colour_sensor_ready =1;
  41              		.loc 1 46 0
  42 000a 0122     		movs	r2, #1
  43 000c 1A71     		strb	r2, [r3, #4]
  44 000e 08BD     		pop	{r3, pc}
  45              	.L4:
  46              		.align	2
  47              	.L3:
  48 0010 00000000 		.word	.LANCHOR0
  49              		.cfi_endproc
  50              	.LFE66:
  51              		.size	colour_sensor_isr, .-colour_sensor_isr
  52              		.section	.text.map,"ax",%progbits
  53              		.align	2
  54              		.global	map
  55              		.thumb
  56              		.thumb_func
  57              		.type	map, %function
  58              	map:
  59              	.LFB64:
  20:Colour_Sensor.c ****     // limit output to 0 or 255 when it is out of desired range
  60              		.loc 1 20 0
  61              		.cfi_startproc
  62              		@ args = 4, pretend = 0, frame = 0
  63              		@ frame_needed = 0, uses_anonymous_args = 0
  64              		@ link register save eliminated.
  65              	.LVL1:
  22:Colour_Sensor.c ****     else if (x >=in_max) return out_max;
  66              		.loc 1 22 0
ARM GAS  C:\Users\ANDREW~1\AppData\Local\Temp\ccxNhSpD.s 			page 3


  67 0000 8842     		cmp	r0, r1
  68 0002 0CD9     		bls	.L7
  20:Colour_Sensor.c ****     // limit output to 0 or 255 when it is out of desired range
  69              		.loc 1 20 0
  70 0004 10B4     		push	{r4}
  71              		.cfi_def_cfa_offset 4
  72              		.cfi_offset 4, -4
  23:Colour_Sensor.c ****     
  73              		.loc 1 23 0
  74 0006 9042     		cmp	r0, r2
  75 0008 0BD2     		bcs	.L8
  25:Colour_Sensor.c **** }
  76              		.loc 1 25 0
  77 000a 401A     		subs	r0, r0, r1
  78              	.LVL2:
  79 000c 019C     		ldr	r4, [sp, #4]
  80 000e E41A     		subs	r4, r4, r3
  81 0010 04FB00F0 		mul	r0, r4, r0
  82 0014 511A     		subs	r1, r2, r1
  83              	.LVL3:
  84 0016 B0FBF1F1 		udiv	r1, r0, r1
  85 001a 5818     		adds	r0, r3, r1
  86 001c 02E0     		b	.L6
  87              	.LVL4:
  88              	.L7:
  89              		.cfi_def_cfa_offset 0
  90              		.cfi_restore 4
  22:Colour_Sensor.c ****     else if (x >=in_max) return out_max;
  91              		.loc 1 22 0
  92 001e 1846     		mov	r0, r3
  93              	.LVL5:
  26:Colour_Sensor.c **** 
  94              		.loc 1 26 0
  95 0020 7047     		bx	lr
  96              	.LVL6:
  97              	.L8:
  98              		.cfi_def_cfa_offset 4
  99              		.cfi_offset 4, -4
  23:Colour_Sensor.c ****     
 100              		.loc 1 23 0
 101 0022 0198     		ldr	r0, [sp, #4]
 102              	.LVL7:
 103              	.L6:
  26:Colour_Sensor.c **** 
 104              		.loc 1 26 0
 105 0024 10BC     		pop	{r4}
 106              		.cfi_restore 4
 107              		.cfi_def_cfa_offset 0
 108              	.LVL8:
 109 0026 7047     		bx	lr
 110              		.cfi_endproc
 111              	.LFE64:
 112              		.size	map, .-map
 113              		.section	.text.Colour_Sensor_Setup,"ax",%progbits
 114              		.align	2
 115              		.global	Colour_Sensor_Setup
 116              		.thumb
ARM GAS  C:\Users\ANDREW~1\AppData\Local\Temp\ccxNhSpD.s 			page 4


 117              		.thumb_func
 118              		.type	Colour_Sensor_Setup, %function
 119              	Colour_Sensor_Setup:
 120              	.LFB65:
  32:Colour_Sensor.c ****     // Colour sensor setup
 121              		.loc 1 32 0
 122              		.cfi_startproc
 123              		@ args = 0, pretend = 0, frame = 0
 124              		@ frame_needed = 0, uses_anonymous_args = 0
 125 0000 08B5     		push	{r3, lr}
 126              		.cfi_def_cfa_offset 8
 127              		.cfi_offset 3, -8
 128              		.cfi_offset 14, -4
  34:Colour_Sensor.c ****     Count7_10ms_Start();
 129              		.loc 1 34 0
 130 0002 FFF7FEFF 		bl	Pulse_counter_Start
 131              	.LVL9:
  35:Colour_Sensor.c ****     freq_isr_ClearPending(); 
 132              		.loc 1 35 0
 133 0006 FFF7FEFF 		bl	Count7_10ms_Start
 134              	.LVL10:
  36:Colour_Sensor.c ****     freq_isr_StartEx(colour_sensor_isr);
 135              		.loc 1 36 0
 136 000a FFF7FEFF 		bl	freq_isr_ClearPending
 137              	.LVL11:
  37:Colour_Sensor.c **** }
 138              		.loc 1 37 0
 139 000e 0248     		ldr	r0, .L12
 140 0010 FFF7FEFF 		bl	freq_isr_StartEx
 141              	.LVL12:
 142 0014 08BD     		pop	{r3, pc}
 143              	.L13:
 144 0016 00BF     		.align	2
 145              	.L12:
 146 0018 00000000 		.word	colour_sensor_isr
 147              		.cfi_endproc
 148              	.LFE65:
 149              		.size	Colour_Sensor_Setup, .-Colour_Sensor_Setup
 150              		.section	.text.colourSensor_Single_Scan,"ax",%progbits
 151              		.align	2
 152              		.global	colourSensor_Single_Scan
 153              		.thumb
 154              		.thumb_func
 155              		.type	colourSensor_Single_Scan, %function
 156              	colourSensor_Single_Scan:
 157              	.LFB67:
  47:Colour_Sensor.c ****     
  48:Colour_Sensor.c **** }
  49:Colour_Sensor.c **** 
  50:Colour_Sensor.c **** uint32 colourSensor_Single_Scan(int S2,int S3)
  51:Colour_Sensor.c **** {
 158              		.loc 1 51 0
 159              		.cfi_startproc
 160              		@ args = 0, pretend = 0, frame = 0
 161              		@ frame_needed = 0, uses_anonymous_args = 0
 162              	.LVL13:
 163 0000 38B5     		push	{r3, r4, r5, lr}
ARM GAS  C:\Users\ANDREW~1\AppData\Local\Temp\ccxNhSpD.s 			page 5


 164              		.cfi_def_cfa_offset 16
 165              		.cfi_offset 3, -16
 166              		.cfi_offset 4, -12
 167              		.cfi_offset 5, -8
 168              		.cfi_offset 14, -4
 169 0002 0546     		mov	r5, r0
 170 0004 0C46     		mov	r4, r1
  52:Colour_Sensor.c ****     Control_Reg_1_Write(1);
 171              		.loc 1 52 0
 172 0006 0120     		movs	r0, #1
 173              	.LVL14:
 174 0008 FFF7FEFF 		bl	Control_Reg_1_Write
 175              	.LVL15:
  53:Colour_Sensor.c ****     
  54:Colour_Sensor.c ****     ColourSensor_S2_Write(S2);
 176              		.loc 1 54 0
 177 000c E8B2     		uxtb	r0, r5
 178 000e FFF7FEFF 		bl	ColourSensor_S2_Write
 179              	.LVL16:
  55:Colour_Sensor.c ****     ColourSensor_S3_Write(S3);
 180              		.loc 1 55 0
 181 0012 E0B2     		uxtb	r0, r4
 182 0014 FFF7FEFF 		bl	ColourSensor_S3_Write
 183              	.LVL17:
  56:Colour_Sensor.c ****     colour_sensor_ready =0;
 184              		.loc 1 56 0
 185 0018 0024     		movs	r4, #0
 186              	.LVL18:
 187 001a 094B     		ldr	r3, .L17
 188 001c 1C71     		strb	r4, [r3, #4]
  57:Colour_Sensor.c ****     
  58:Colour_Sensor.c ****     CyDelay(5);
 189              		.loc 1 58 0
 190 001e 0520     		movs	r0, #5
 191 0020 FFF7FEFF 		bl	CyDelay
 192              	.LVL19:
  59:Colour_Sensor.c ****     Control_Reg_1_Write(0);
 193              		.loc 1 59 0
 194 0024 2046     		mov	r0, r4
 195 0026 FFF7FEFF 		bl	Control_Reg_1_Write
 196              	.LVL20:
 197              	.L15:
  60:Colour_Sensor.c ****     
  61:Colour_Sensor.c ****     while(colour_sensor_ready==0)
 198              		.loc 1 61 0 discriminator 1
 199 002a 054B     		ldr	r3, .L17
 200 002c 1B79     		ldrb	r3, [r3, #4]	@ zero_extendqisi2
 201 002e 002B     		cmp	r3, #0
 202 0030 FBD0     		beq	.L15
  62:Colour_Sensor.c ****     {
  63:Colour_Sensor.c ****         // there is an expected 10ms dead zone here
  64:Colour_Sensor.c ****     }
  65:Colour_Sensor.c ****     CyDelay(10);
 203              		.loc 1 65 0
 204 0032 0A20     		movs	r0, #10
 205 0034 FFF7FEFF 		bl	CyDelay
 206              	.LVL21:
ARM GAS  C:\Users\ANDREW~1\AppData\Local\Temp\ccxNhSpD.s 			page 6


  66:Colour_Sensor.c ****     return value;
  67:Colour_Sensor.c **** }
 207              		.loc 1 67 0
 208 0038 014B     		ldr	r3, .L17
 209 003a 1868     		ldr	r0, [r3]
 210 003c 38BD     		pop	{r3, r4, r5, pc}
 211              	.LVL22:
 212              	.L18:
 213 003e 00BF     		.align	2
 214              	.L17:
 215 0040 00000000 		.word	.LANCHOR0
 216              		.cfi_endproc
 217              	.LFE67:
 218              		.size	colourSensor_Single_Scan, .-colourSensor_Single_Scan
 219              		.global	colour_sensor_ready
 220              		.global	value
 221              		.bss
 222              		.align	2
 223              		.set	.LANCHOR0,. + 0
 224              		.type	value, %object
 225              		.size	value, 4
 226              	value:
 227 0000 00000000 		.space	4
 228              		.type	colour_sensor_ready, %object
 229              		.size	colour_sensor_ready, 1
 230              	colour_sensor_ready:
 231 0004 00       		.space	1
 232              		.text
 233              	.Letext0:
 234              		.file 2 "d:\\monash_apps\\psoc creator\\4.4\\psoc creator\\import\\gnu\\arm\\5.4.1\\arm-none-eabi\
 235              		.file 3 "d:\\monash_apps\\psoc creator\\4.4\\psoc creator\\import\\gnu\\arm\\5.4.1\\arm-none-eabi\
 236              		.file 4 "Generated_Source\\PSoC5/cytypes.h"
 237              		.file 5 "Generated_Source\\PSoC5/core_cm3.h"
 238              		.file 6 "Generated_Source\\PSoC5/Pulse_counter.h"
 239              		.file 7 "Generated_Source\\PSoC5/Count7_10ms.h"
 240              		.file 8 "Generated_Source\\PSoC5/freq_isr.h"
 241              		.file 9 "Generated_Source\\PSoC5/Control_Reg_1.h"
 242              		.file 10 "Generated_Source\\PSoC5/ColourSensor_S2.h"
 243              		.file 11 "Generated_Source\\PSoC5/ColourSensor_S3.h"
 244              		.file 12 "Generated_Source\\PSoC5/CyLib.h"