ARM GAS  C:\Users\ANDREW~1\AppData\Local\Temp\ccePrt53.s 			page 1


   1              		.syntax unified
   2              		.cpu cortex-m3
   3              		.fpu softvfp
   4              		.eabi_attribute 20, 1
   5              		.eabi_attribute 21, 1
   6              		.eabi_attribute 23, 3
   7              		.eabi_attribute 24, 1
   8              		.eabi_attribute 25, 1
   9              		.eabi_attribute 26, 1
  10              		.eabi_attribute 30, 1
  11              		.eabi_attribute 34, 1
  12              		.eabi_attribute 18, 4
  13              		.thumb
  14              		.syntax unified
  15              		.file	"main.c"
  16              		.text
  17              	.Ltext0:
  18              		.cfi_sections	.debug_frame
  19              		.section	.text.colour_sensor_isr,"ax",%progbits
  20              		.align	2
  21              		.global	colour_sensor_isr
  22              		.thumb
  23              		.thumb_func
  24              		.type	colour_sensor_isr, %function
  25              	colour_sensor_isr:
  26              	.LFB66:
  27              		.file 1 "main.c"
   1:main.c        **** /* ========================================
   2:main.c        ****  *
   3:main.c        ****  * Copyright YOUR COMPANY, THE YEAR
   4:main.c        ****  * All Rights Reserved
   5:main.c        ****  * UNPUBLISHED, LICENSED SOFTWARE
   6:main.c        ****  *
   7:main.c        ****  * CONFIDENTIAL AND PROPRIETARY INFORMATION
   8:main.c        ****  * WHICH IS THE PROPERTY OF your company.
   9:main.c        ****  *
  10:main.c        ****  * ========================================
  11:main.c        **** */
  12:main.c        **** #include "project.h"
  13:main.c        **** #include <stdbool.h>
  14:main.c        **** #include <stdio.h>
  15:main.c        **** 
  16:main.c        **** uint32 value = 0;
  17:main.c        **** 
  18:main.c        **** uint32 colourSensor_Single_Scan(int S2,int S3);
  19:main.c        **** CY_ISR(colour_sensor_isr);
  20:main.c        **** uint32 map(uint32 x, uint32 in_min, uint32 in_max, uint32 out_min, uint32 out_max);
  21:main.c        **** 
  22:main.c        **** 
  23:main.c        **** int main(void)
  24:main.c        **** {
  25:main.c        ****     CyGlobalIntEnable; /* Enable global interrupts. */
  26:main.c        ****     UART_1_Start();
  27:main.c        ****     
  28:main.c        ****     // Test Signal setup
  29:main.c        ****     PWM_Test_Signal_Start();
  30:main.c        ****     
ARM GAS  C:\Users\ANDREW~1\AppData\Local\Temp\ccePrt53.s 			page 2


  31:main.c        ****     // Colour sensor setup
  32:main.c        ****     Pulse_counter_Start();
  33:main.c        ****     Count7_10ms_Start();
  34:main.c        ****     freq_isr_ClearPending(); 
  35:main.c        ****     freq_isr_StartEx(colour_sensor_isr);
  36:main.c        ****     
  37:main.c        ****     /* Place your initialization/startup code here (e.g. MyInst_Start()) */
  38:main.c        ****     
  39:main.c        ****     for(;;)
  40:main.c        ****     {
  41:main.c        ****         
  42:main.c        ****     //ColourSensor_S2_Write(1);
  43:main.c        ****     //ColourSensor_S3_Write(1);
  44:main.c        ****     //uint32 red = Pulse_counter_ReadCounter(); 
  45:main.c        ****     //uint32 blue = value;
  46:main.c        ****     //uint32 clear = 0;
  47:main.c        ****     //uint32 green = 0;
  48:main.c        ****     
  49:main.c        ****         
  50:main.c        ****     //uint32 red   = colourSensor_Single_Scan(0,0);  // min=120 max=260
  51:main.c        ****     //uint32 blue  = colourSensor_Single_Scan(0,1);  // min=100 max=275
  52:main.c        ****     //uint32 clear = colourSensor_Single_Scan(1,0);  
  53:main.c        ****     //uint32 green = colourSensor_Single_Scan(1,1);  // min=80 max=170
  54:main.c        ****     
  55:main.c        ****     uint32 red   = map(colourSensor_Single_Scan(0,0)  ,120,200  ,0,100);  // min=120 max=260
  56:main.c        ****     uint32 blue  = map(colourSensor_Single_Scan(0,1)  ,120,200  ,0,100);  // min=100 max=275
  57:main.c        ****     uint32 clear =  map(colourSensor_Single_Scan(1,0)  ,100,1500  ,0,100);  // min=100 max=275
  58:main.c        ****     uint32 green = map(colourSensor_Single_Scan(1,1)  ,80,180  ,0,100);  // min=80 max=170
  59:main.c        ****     
  60:main.c        ****     
  61:main.c        ****     ////////////////////////////////////////////
  62:main.c        ****     char str[50];
  63:main.c        ****     sprintf(str, "red: %lu     \t green: %lu\t blue: %lu  \t clear: %lu \t", red, green, blue, clea
  64:main.c        ****     UART_1_PutString(str);
  65:main.c        ****     
  66:main.c        ****     ////////////////////////////////////////////
  67:main.c        ****     if((red > blue) && (red>green))
  68:main.c        ****         sprintf(str, "red \n");
  69:main.c        ****     else if((blue > red) && (blue>green))
  70:main.c        ****         sprintf(str, "blue \n");
  71:main.c        ****     else if((green> red) && (green>blue))
  72:main.c        ****         sprintf(str, "green \n");
  73:main.c        ****     else
  74:main.c        ****         sprintf(str, "no answer \n");
  75:main.c        ****     
  76:main.c        ****     UART_1_PutString(str);
  77:main.c        ****     
  78:main.c        ****     
  79:main.c        ****         
  80:main.c        ****     }
  81:main.c        **** }
  82:main.c        **** 
  83:main.c        **** uint32 map(uint32 x, uint32 in_min, uint32 in_max, uint32 out_min, uint32 out_max) {
  84:main.c        ****     // limit output to 0 or 255 when it is out of desired range
  85:main.c        ****     if (x <=in_min) return out_min;
  86:main.c        ****     else if (x >=in_max) return out_max;
  87:main.c        ****     
ARM GAS  C:\Users\ANDREW~1\AppData\Local\Temp\ccePrt53.s 			page 3


  88:main.c        ****     return (x - in_min) * (out_max - out_min) / (in_max - in_min) + out_min;
  89:main.c        **** }
  90:main.c        **** 
  91:main.c        **** bool colour_sensor_ready = 0;
  92:main.c        **** CY_ISR(colour_sensor_isr){
  28              		.loc 1 92 0
  29              		.cfi_startproc
  30              		@ args = 0, pretend = 0, frame = 0
  31              		@ frame_needed = 0, uses_anonymous_args = 0
  32 0000 08B5     		push	{r3, lr}
  33              		.cfi_def_cfa_offset 8
  34              		.cfi_offset 3, -8
  35              		.cfi_offset 14, -4
  93:main.c        ****     value= Pulse_counter_ReadCounter();
  36              		.loc 1 93 0
  37 0002 FFF7FEFF 		bl	Pulse_counter_ReadCounter
  38              	.LVL0:
  39 0006 024B     		ldr	r3, .L3
  40 0008 1860     		str	r0, [r3]
  94:main.c        ****     colour_sensor_ready =1;
  41              		.loc 1 94 0
  42 000a 0122     		movs	r2, #1
  43 000c 1A71     		strb	r2, [r3, #4]
  44 000e 08BD     		pop	{r3, pc}
  45              	.L4:
  46              		.align	2
  47              	.L3:
  48 0010 00000000 		.word	.LANCHOR0
  49              		.cfi_endproc
  50              	.LFE66:
  51              		.size	colour_sensor_isr, .-colour_sensor_isr
  52              		.section	.text.map,"ax",%progbits
  53              		.align	2
  54              		.global	map
  55              		.thumb
  56              		.thumb_func
  57              		.type	map, %function
  58              	map:
  59              	.LFB65:
  83:main.c        ****     // limit output to 0 or 255 when it is out of desired range
  60              		.loc 1 83 0
  61              		.cfi_startproc
  62              		@ args = 4, pretend = 0, frame = 0
  63              		@ frame_needed = 0, uses_anonymous_args = 0
  64              		@ link register save eliminated.
  65              	.LVL1:
  85:main.c        ****     else if (x >=in_max) return out_max;
  66              		.loc 1 85 0
  67 0000 8842     		cmp	r0, r1
  68 0002 0CD9     		bls	.L7
  83:main.c        ****     // limit output to 0 or 255 when it is out of desired range
  69              		.loc 1 83 0
  70 0004 10B4     		push	{r4}
  71              		.cfi_def_cfa_offset 4
  72              		.cfi_offset 4, -4
  86:main.c        ****     
  73              		.loc 1 86 0
ARM GAS  C:\Users\ANDREW~1\AppData\Local\Temp\ccePrt53.s 			page 4


  74 0006 9042     		cmp	r0, r2
  75 0008 0BD2     		bcs	.L8
  88:main.c        **** }
  76              		.loc 1 88 0
  77 000a 401A     		subs	r0, r0, r1
  78              	.LVL2:
  79 000c 019C     		ldr	r4, [sp, #4]
  80 000e E41A     		subs	r4, r4, r3
  81 0010 04FB00F0 		mul	r0, r4, r0
  82 0014 511A     		subs	r1, r2, r1
  83              	.LVL3:
  84 0016 B0FBF1F1 		udiv	r1, r0, r1
  85 001a 5818     		adds	r0, r3, r1
  86 001c 02E0     		b	.L6
  87              	.LVL4:
  88              	.L7:
  89              		.cfi_def_cfa_offset 0
  90              		.cfi_restore 4
  85:main.c        ****     else if (x >=in_max) return out_max;
  91              		.loc 1 85 0
  92 001e 1846     		mov	r0, r3
  93              	.LVL5:
  89:main.c        **** 
  94              		.loc 1 89 0
  95 0020 7047     		bx	lr
  96              	.LVL6:
  97              	.L8:
  98              		.cfi_def_cfa_offset 4
  99              		.cfi_offset 4, -4
  86:main.c        ****     
 100              		.loc 1 86 0
 101 0022 0198     		ldr	r0, [sp, #4]
 102              	.LVL7:
 103              	.L6:
  89:main.c        **** 
 104              		.loc 1 89 0
 105 0024 10BC     		pop	{r4}
 106              		.cfi_restore 4
 107              		.cfi_def_cfa_offset 0
 108              	.LVL8:
 109 0026 7047     		bx	lr
 110              		.cfi_endproc
 111              	.LFE65:
 112              		.size	map, .-map
 113              		.section	.text.colourSensor_Single_Scan,"ax",%progbits
 114              		.align	2
 115              		.global	colourSensor_Single_Scan
 116              		.thumb
 117              		.thumb_func
 118              		.type	colourSensor_Single_Scan, %function
 119              	colourSensor_Single_Scan:
 120              	.LFB67:
  95:main.c        ****     
  96:main.c        **** }
  97:main.c        **** 
  98:main.c        **** uint32 colourSensor_Single_Scan(int S2,int S3)
  99:main.c        **** {
ARM GAS  C:\Users\ANDREW~1\AppData\Local\Temp\ccePrt53.s 			page 5


 121              		.loc 1 99 0
 122              		.cfi_startproc
 123              		@ args = 0, pretend = 0, frame = 0
 124              		@ frame_needed = 0, uses_anonymous_args = 0
 125              	.LVL9:
 126 0000 38B5     		push	{r3, r4, r5, lr}
 127              		.cfi_def_cfa_offset 16
 128              		.cfi_offset 3, -16
 129              		.cfi_offset 4, -12
 130              		.cfi_offset 5, -8
 131              		.cfi_offset 14, -4
 132 0002 0546     		mov	r5, r0
 133 0004 0C46     		mov	r4, r1
 100:main.c        ****     Control_Reg_1_Write(1);
 134              		.loc 1 100 0
 135 0006 0120     		movs	r0, #1
 136              	.LVL10:
 137 0008 FFF7FEFF 		bl	Control_Reg_1_Write
 138              	.LVL11:
 101:main.c        ****     
 102:main.c        ****     ColourSensor_S2_Write(S2);
 139              		.loc 1 102 0
 140 000c E8B2     		uxtb	r0, r5
 141 000e FFF7FEFF 		bl	ColourSensor_S2_Write
 142              	.LVL12:
 103:main.c        ****     ColourSensor_S3_Write(S3);
 143              		.loc 1 103 0
 144 0012 E0B2     		uxtb	r0, r4
 145 0014 FFF7FEFF 		bl	ColourSensor_S3_Write
 146              	.LVL13:
 104:main.c        ****     colour_sensor_ready =0;
 147              		.loc 1 104 0
 148 0018 0024     		movs	r4, #0
 149              	.LVL14:
 150 001a 094B     		ldr	r3, .L13
 151 001c 1C71     		strb	r4, [r3, #4]
 105:main.c        ****     
 106:main.c        ****     CyDelay(5);
 152              		.loc 1 106 0
 153 001e 0520     		movs	r0, #5
 154 0020 FFF7FEFF 		bl	CyDelay
 155              	.LVL15:
 107:main.c        ****     Control_Reg_1_Write(0);
 156              		.loc 1 107 0
 157 0024 2046     		mov	r0, r4
 158 0026 FFF7FEFF 		bl	Control_Reg_1_Write
 159              	.LVL16:
 160              	.L11:
 108:main.c        ****     
 109:main.c        ****     while(colour_sensor_ready==0)
 161              		.loc 1 109 0 discriminator 1
 162 002a 054B     		ldr	r3, .L13
 163 002c 1B79     		ldrb	r3, [r3, #4]	@ zero_extendqisi2
 164 002e 002B     		cmp	r3, #0
 165 0030 FBD0     		beq	.L11
 110:main.c        ****     {
 111:main.c        ****         // there is a 10ms dead zone here
ARM GAS  C:\Users\ANDREW~1\AppData\Local\Temp\ccePrt53.s 			page 6


 112:main.c        ****     }
 113:main.c        ****     CyDelay(10);
 166              		.loc 1 113 0
 167 0032 0A20     		movs	r0, #10
 168 0034 FFF7FEFF 		bl	CyDelay
 169              	.LVL17:
 114:main.c        ****     
 115:main.c        ****     
 116:main.c        ****     return value;
 117:main.c        **** }
 170              		.loc 1 117 0
 171 0038 014B     		ldr	r3, .L13
 172 003a 1868     		ldr	r0, [r3]
 173 003c 38BD     		pop	{r3, r4, r5, pc}
 174              	.LVL18:
 175              	.L14:
 176 003e 00BF     		.align	2
 177              	.L13:
 178 0040 00000000 		.word	.LANCHOR0
 179              		.cfi_endproc
 180              	.LFE67:
 181              		.size	colourSensor_Single_Scan, .-colourSensor_Single_Scan
 182              		.section	.text.main,"ax",%progbits
 183              		.align	2
 184              		.global	main
 185              		.thumb
 186              		.thumb_func
 187              		.type	main, %function
 188              	main:
 189              	.LFB64:
  24:main.c        ****     CyGlobalIntEnable; /* Enable global interrupts. */
 190              		.loc 1 24 0
 191              		.cfi_startproc
 192              		@ args = 0, pretend = 0, frame = 56
 193              		@ frame_needed = 0, uses_anonymous_args = 0
 194 0000 F0B5     		push	{r4, r5, r6, r7, lr}
 195              		.cfi_def_cfa_offset 20
 196              		.cfi_offset 4, -20
 197              		.cfi_offset 5, -16
 198              		.cfi_offset 6, -12
 199              		.cfi_offset 7, -8
 200              		.cfi_offset 14, -4
 201 0002 91B0     		sub	sp, sp, #68
 202              		.cfi_def_cfa_offset 88
  25:main.c        ****     UART_1_Start();
 203              		.loc 1 25 0
 204              		.syntax unified
 205              	@ 25 "main.c" 1
 206 0004 62B6     		CPSIE   i
 207              	@ 0 "" 2
  26:main.c        ****     
 208              		.loc 1 26 0
 209              		.thumb
 210              		.syntax unified
 211 0006 FFF7FEFF 		bl	UART_1_Start
 212              	.LVL19:
  29:main.c        ****     
ARM GAS  C:\Users\ANDREW~1\AppData\Local\Temp\ccePrt53.s 			page 7


 213              		.loc 1 29 0
 214 000a FFF7FEFF 		bl	PWM_Test_Signal_Start
 215              	.LVL20:
  32:main.c        ****     Count7_10ms_Start();
 216              		.loc 1 32 0
 217 000e FFF7FEFF 		bl	Pulse_counter_Start
 218              	.LVL21:
  33:main.c        ****     freq_isr_ClearPending(); 
 219              		.loc 1 33 0
 220 0012 FFF7FEFF 		bl	Count7_10ms_Start
 221              	.LVL22:
  34:main.c        ****     freq_isr_StartEx(colour_sensor_isr);
 222              		.loc 1 34 0
 223 0016 FFF7FEFF 		bl	freq_isr_ClearPending
 224              	.LVL23:
  35:main.c        ****     
 225              		.loc 1 35 0
 226 001a 3448     		ldr	r0, .L22
 227 001c FFF7FEFF 		bl	freq_isr_StartEx
 228              	.LVL24:
 229              	.L20:
 230              	.LBB2:
  55:main.c        ****     uint32 blue  = map(colourSensor_Single_Scan(0,1)  ,120,200  ,0,100);  // min=100 max=275
 231              		.loc 1 55 0
 232 0020 0021     		movs	r1, #0
 233 0022 0846     		mov	r0, r1
 234 0024 FFF7FEFF 		bl	colourSensor_Single_Scan
 235              	.LVL25:
 236 0028 6424     		movs	r4, #100
 237 002a 0094     		str	r4, [sp]
 238 002c 0023     		movs	r3, #0
 239 002e C822     		movs	r2, #200
 240 0030 7821     		movs	r1, #120
 241 0032 FFF7FEFF 		bl	map
 242              	.LVL26:
 243 0036 0546     		mov	r5, r0
 244              	.LVL27:
  56:main.c        ****     uint32 clear =  map(colourSensor_Single_Scan(1,0)  ,100,1500  ,0,100);  // min=100 max=275
 245              		.loc 1 56 0
 246 0038 0121     		movs	r1, #1
 247 003a 0020     		movs	r0, #0
 248              	.LVL28:
 249 003c FFF7FEFF 		bl	colourSensor_Single_Scan
 250              	.LVL29:
 251 0040 0094     		str	r4, [sp]
 252 0042 0023     		movs	r3, #0
 253 0044 C822     		movs	r2, #200
 254 0046 7821     		movs	r1, #120
 255 0048 FFF7FEFF 		bl	map
 256              	.LVL30:
 257 004c 0646     		mov	r6, r0
 258              	.LVL31:
  57:main.c        ****     uint32 green = map(colourSensor_Single_Scan(1,1)  ,80,180  ,0,100);  // min=80 max=170
 259              		.loc 1 57 0
 260 004e 0021     		movs	r1, #0
 261 0050 0120     		movs	r0, #1
 262              	.LVL32:
ARM GAS  C:\Users\ANDREW~1\AppData\Local\Temp\ccePrt53.s 			page 8


 263 0052 FFF7FEFF 		bl	colourSensor_Single_Scan
 264              	.LVL33:
 265 0056 0094     		str	r4, [sp]
 266 0058 0023     		movs	r3, #0
 267 005a 40F2DC52 		movw	r2, #1500
 268 005e 2146     		mov	r1, r4
 269 0060 FFF7FEFF 		bl	map
 270              	.LVL34:
 271 0064 0746     		mov	r7, r0
 272              	.LVL35:
  58:main.c        ****     
 273              		.loc 1 58 0
 274 0066 0121     		movs	r1, #1
 275 0068 0846     		mov	r0, r1
 276              	.LVL36:
 277 006a FFF7FEFF 		bl	colourSensor_Single_Scan
 278              	.LVL37:
 279 006e 0094     		str	r4, [sp]
 280 0070 0023     		movs	r3, #0
 281 0072 B422     		movs	r2, #180
 282 0074 5021     		movs	r1, #80
 283 0076 FFF7FEFF 		bl	map
 284              	.LVL38:
 285 007a 0446     		mov	r4, r0
 286              	.LVL39:
  63:main.c        ****     UART_1_PutString(str);
 287              		.loc 1 63 0
 288 007c 0197     		str	r7, [sp, #4]
 289 007e 0096     		str	r6, [sp]
 290 0080 0346     		mov	r3, r0
 291 0082 2A46     		mov	r2, r5
 292 0084 1A49     		ldr	r1, .L22+4
 293 0086 03A8     		add	r0, sp, #12
 294              	.LVL40:
 295 0088 FFF7FEFF 		bl	sprintf
 296              	.LVL41:
  64:main.c        ****     
 297              		.loc 1 64 0
 298 008c 03A8     		add	r0, sp, #12
 299 008e FFF7FEFF 		bl	UART_1_PutString
 300              	.LVL42:
  67:main.c        ****         sprintf(str, "red \n");
 301              		.loc 1 67 0
 302 0092 B542     		cmp	r5, r6
 303 0094 08D9     		bls	.L16
  67:main.c        ****         sprintf(str, "red \n");
 304              		.loc 1 67 0 is_stmt 0 discriminator 1
 305 0096 A542     		cmp	r5, r4
 306 0098 06D9     		bls	.L16
  68:main.c        ****     else if((blue > red) && (blue>green))
 307              		.loc 1 68 0 is_stmt 1
 308 009a 164B     		ldr	r3, .L22+8
 309 009c 93E80300 		ldmia	r3, {r0, r1}
 310 00a0 0390     		str	r0, [sp, #12]
 311 00a2 ADF81010 		strh	r1, [sp, #16]	@ movhi
 312 00a6 1DE0     		b	.L17
 313              	.L16:
ARM GAS  C:\Users\ANDREW~1\AppData\Local\Temp\ccePrt53.s 			page 9


  69:main.c        ****         sprintf(str, "blue \n");
 314              		.loc 1 69 0
 315 00a8 B542     		cmp	r5, r6
 316 00aa 0BD2     		bcs	.L18
  69:main.c        ****         sprintf(str, "blue \n");
 317              		.loc 1 69 0 is_stmt 0 discriminator 1
 318 00ac A642     		cmp	r6, r4
 319 00ae 09D9     		bls	.L18
  70:main.c        ****     else if((green> red) && (green>blue))
 320              		.loc 1 70 0 is_stmt 1
 321 00b0 114B     		ldr	r3, .L22+12
 322 00b2 93E80300 		ldmia	r3, {r0, r1}
 323 00b6 0390     		str	r0, [sp, #12]
 324 00b8 ADF81010 		strh	r1, [sp, #16]	@ movhi
 325 00bc 090C     		lsrs	r1, r1, #16
 326 00be 8DF81210 		strb	r1, [sp, #18]
 327 00c2 0FE0     		b	.L17
 328              	.L18:
  71:main.c        ****         sprintf(str, "green \n");
 329              		.loc 1 71 0
 330 00c4 A542     		cmp	r5, r4
 331 00c6 08D2     		bcs	.L19
  71:main.c        ****         sprintf(str, "green \n");
 332              		.loc 1 71 0 is_stmt 0 discriminator 1
 333 00c8 A642     		cmp	r6, r4
 334 00ca 06D2     		bcs	.L19
  72:main.c        ****     else
 335              		.loc 1 72 0 is_stmt 1
 336 00cc 03AB     		add	r3, sp, #12
 337 00ce 0B4A     		ldr	r2, .L22+16
 338 00d0 92E80300 		ldmia	r2, {r0, r1}
 339 00d4 83E80300 		stmia	r3, {r0, r1}
 340 00d8 04E0     		b	.L17
 341              	.L19:
  74:main.c        ****     
 342              		.loc 1 74 0
 343 00da 03AB     		add	r3, sp, #12
 344 00dc 084A     		ldr	r2, .L22+20
 345 00de 07CA     		ldmia	r2, {r0, r1, r2}
 346 00e0 83E80700 		stmia	r3, {r0, r1, r2}
 347              	.L17:
  76:main.c        ****     
 348              		.loc 1 76 0
 349 00e4 03A8     		add	r0, sp, #12
 350 00e6 FFF7FEFF 		bl	UART_1_PutString
 351              	.LVL43:
 352              	.LBE2:
  80:main.c        **** }
 353              		.loc 1 80 0
 354 00ea 99E7     		b	.L20
 355              	.L23:
 356              		.align	2
 357              	.L22:
 358 00ec 00000000 		.word	colour_sensor_isr
 359 00f0 00000000 		.word	.LC0
 360 00f4 38000000 		.word	.LC1
 361 00f8 40000000 		.word	.LC2
ARM GAS  C:\Users\ANDREW~1\AppData\Local\Temp\ccePrt53.s 			page 10


 362 00fc 48000000 		.word	.LC3
 363 0100 50000000 		.word	.LC4
 364              		.cfi_endproc
 365              	.LFE64:
 366              		.size	main, .-main
 367              		.global	colour_sensor_ready
 368              		.global	value
 369              		.section	.rodata.str1.4,"aMS",%progbits,1
 370              		.align	2
 371              	.LC0:
 372 0000 7265643A 		.ascii	"red: %lu     \011 green: %lu\011 blue: %lu  \011 cl"
 372      20256C75 
 372      20202020 
 372      20092067 
 372      7265656E 
 373 002a 6561723A 		.ascii	"ear: %lu \011\000"
 373      20256C75 
 373      200900
 374 0035 000000   		.space	3
 375              	.LC1:
 376 0038 72656420 		.ascii	"red \012\000"
 376      0A00
 377 003e 0000     		.space	2
 378              	.LC2:
 379 0040 626C7565 		.ascii	"blue \012\000"
 379      200A00
 380 0047 00       		.space	1
 381              	.LC3:
 382 0048 67726565 		.ascii	"green \012\000"
 382      6E200A00 
 383              	.LC4:
 384 0050 6E6F2061 		.ascii	"no answer \012\000"
 384      6E737765 
 384      72200A00 
 385              		.bss
 386              		.align	2
 387              		.set	.LANCHOR0,. + 0
 388              		.type	value, %object
 389              		.size	value, 4
 390              	value:
 391 0000 00000000 		.space	4
 392              		.type	colour_sensor_ready, %object
 393              		.size	colour_sensor_ready, 1
 394              	colour_sensor_ready:
 395 0004 00       		.space	1
 396              		.text
 397              	.Letext0:
 398              		.file 2 "d:\\monash_apps\\psoc creator\\4.4\\psoc creator\\import\\gnu\\arm\\5.4.1\\arm-none-eabi\
 399              		.file 3 "d:\\monash_apps\\psoc creator\\4.4\\psoc creator\\import\\gnu\\arm\\5.4.1\\arm-none-eabi\
 400              		.file 4 "Generated_Source\\PSoC5/cytypes.h"
 401              		.file 5 "Generated_Source\\PSoC5/core_cm3.h"
 402              		.file 6 "Generated_Source\\PSoC5/Pulse_counter.h"
 403              		.file 7 "Generated_Source\\PSoC5/Control_Reg_1.h"
 404              		.file 8 "Generated_Source\\PSoC5/ColourSensor_S2.h"
 405              		.file 9 "Generated_Source\\PSoC5/ColourSensor_S3.h"
 406              		.file 10 "Generated_Source\\PSoC5/CyLib.h"
 407              		.file 11 "d:\\monash_apps\\psoc creator\\4.4\\psoc creator\\import\\gnu\\arm\\5.4.1\\arm-none-eabi
ARM GAS  C:\Users\ANDREW~1\AppData\Local\Temp\ccePrt53.s 			page 11


 408              		.file 12 "Generated_Source\\PSoC5/UART_1.h"
 409              		.file 13 "Generated_Source\\PSoC5/PWM_Test_Signal.h"
 410              		.file 14 "Generated_Source\\PSoC5/Count7_10ms.h"
 411              		.file 15 "Generated_Source\\PSoC5/freq_isr.h"